(dp0
S'METTS MARK'
p1
(dp2
S'to_messages'
p3
I807
sS'deferral_payments'
p4
S'NaN'
p5
sS'expenses'
p6
I94299
sS'poi'
p7
I00
sS'deferred_income'
p8
g5
sS'email_address'
p9
S'mark.metts@enron.com'
p10
sS'long_term_incentive'
p11
g5
sS'restricted_stock_deferred'
p12
g5
sS'shared_receipt_with_poi'
p13
I702
sS'loan_advances'
p14
g5
sS'from_messages'
p15
I29
sS'other'
p16
I1740
sS'director_fees'
p17
g5
sS'bonus'
p18
I600000
sS'total_stock_value'
p19
I585062
sS'from_poi_to_this_person'
p20
I38
sS'from_this_person_to_poi'
p21
I1
sS'restricted_stock'
p22
I585062
sS'salary'
p23
I365788
sS'ratio_to_poi_email'
p24
cnumpy.core.multiarray
scalar
p25
(cnumpy
dtype
p26
(S'f8'
p27
I0
I1
tp28
Rp29
(I3
S'<'
p30
NNNI-1
I-1
I0
tp31
bS'\x96{\x1aa\xb9\xa7\xa1?'
p32
tp33
Rp34
sS'total_payments'
p35
I1061827
sS'ratio_from_poi_email'
p36
g25
(g29
S'_u\xc2m\xea\x1b\xa8?'
p37
tp38
Rp39
sS'exercised_stock_options'
p40
g25
(g29
S'\x00\x00\x00\x00\x99\xca3A'
p41
tp42
Rp43
ssS'BAXTER JOHN C'
p44
(dp45
g3
g25
(g29
S'\x00\x00\x00\x00\x00\xec\x92@'
p46
tp47
Rp48
sg4
I1295738
sg6
I11200
sg7
I00
sg8
I-1386055
sg9
g5
sg11
I1586055
sg12
g5
sg13
g25
(g29
S'\x00\x00\x00\x00\x00$\x87@'
p49
tp50
Rp51
sg14
g5
sg15
g25
(g29
S'\x00\x00\x00\x00\x00\x80D@'
p52
tp53
Rp54
sg16
I2660303
sg17
g5
sg18
I1200000
sg19
I10623258
sg20
g25
(g29
S'\x00\x00\x00\x00\x00\x80A@'
p55
tp56
Rp57
sg21
g25
(g29
S'\x00\x00\x00\x00\x00\x00 @'
p58
tp59
Rp60
sg22
I3942714
sg23
I267102
sg24
g25
(g29
S'\xfa\x18\x9c\x8f\xc1\xf9\xc8?'
p61
tp62
Rp63
sg35
I5634343
sg36
g25
(g29
S"\xf4'\x19\x8bj\x98\x9d?"
p64
tp65
Rp66
sg40
I6680544
ssS'ELLIOTT STEVEN'
p67
(dp68
g3
g48
sg4
g5
sg6
I78552
sg7
I00
sg8
I-400729
sg9
S'steven.elliott@enron.com'
p69
sg11
g5
sg12
g5
sg13
g51
sg14
g5
sg15
g54
sg16
I12961
sg17
g5
sg18
I350000
sg19
I6678735
sg20
g57
sg21
g60
sg22
I1788391
sg23
I170941
sg24
g25
(g29
S'\xfa\x18\x9c\x8f\xc1\xf9\xc8?'
p70
tp71
Rp72
sg35
I211725
sg36
g25
(g29
S"\xf4'\x19\x8bj\x98\x9d?"
p73
tp74
Rp75
sg40
I4890344
ssS'CORDES WILLIAM R'
p76
(dp77
g3
I764
sg4
g5
sg6
g25
(g29
S'\x00\x00\x00\x00p\xba\xe6@'
p78
tp79
Rp80
sg7
I00
sg8
g5
sg9
S'bill.cordes@enron.com'
p81
sg11
g5
sg12
g5
sg13
I58
sg14
g5
sg15
I12
sg16
g25
(g29
S'\x00\x00\x00\x00`0\xe9@'
p82
tp83
Rp84
sg17
g5
sg18
g25
(g29
S'\x00\x00\x00\x00`\xe3&A'
p85
tp86
Rp87
sg19
I1038185
sg20
I10
sg21
I0
sg22
I386335
sg23
g25
(g29
S'\x00\x00\x00\x00\xa8\x95\x0fA'
p88
tp89
Rp90
sg24
g25
(g29
S'\x00\x00\x00\x00\x00\x00\x00\x00'
p91
tp92
Rp93
sg35
g25
(g29
S'\x00\x00\x00\x00Q\xce0A'
p94
tp95
Rp96
sg36
g25
(g29
S'\x08\x86d\x8bh\xce\x8a?'
p97
tp98
Rp99
sg40
I651850
ssS'HANNON KEVIN P'
p100
(dp101
g3
I1045
sg4
g5
sg6
I34039
sg7
I01
sg8
I-3117011
sg9
S'kevin.hannon@enron.com'
p102
sg11
I1617011
sg12
g5
sg13
I1035
sg14
g5
sg15
I32
sg16
I11350
sg17
g5
sg18
I1500000
sg19
I6391065
sg20
I32
sg21
I21
sg22
I853064
sg23
I243293
sg24
g25
(g29
S'\x00\x00\x00\x00\x00\x00\xe5?'
p103
tp104
Rp105
sg35
I288682
sg36
g25
(g29
S'\x9f\x98\x8dF`[\x9f?'
p106
tp107
Rp108
sg40
I5538001
ssS'MORDAUNT KRISTINA M'
p109
(dp110
g3
g48
sg4
g5
sg6
I35018
sg7
I00
sg8
g5
sg9
S'kristina.mordaunt@enron.com'
p111
sg11
g5
sg12
g5
sg13
g51
sg14
g5
sg15
g54
sg16
I1411
sg17
g5
sg18
I325000
sg19
I208510
sg20
g57
sg21
g60
sg22
I208510
sg23
I267093
sg24
g25
(g29
S'\xfa\x18\x9c\x8f\xc1\xf9\xc8?'
p112
tp113
Rp114
sg35
I628522
sg36
g25
(g29
S"\xf4'\x19\x8bj\x98\x9d?"
p115
tp116
Rp117
sg40
g43
ssS'MEYER ROCKFORD G'
p118
(dp119
g3
I232
sg4
I1848227
sg6
g80
sg7
I00
sg8
g5
sg9
S'rockford.meyer@enron.com'
p120
sg11
g5
sg12
g5
sg13
I22
sg14
g5
sg15
I28
sg16
g84
sg17
g5
sg18
g87
sg19
I955873
sg20
I0
sg21
I0
sg22
I462384
sg23
g90
sg24
g25
(g29
S'\x00\x00\x00\x00\x00\x00\x00\x00'
p121
tp122
Rp123
sg35
I1848227
sg36
g25
(g29
S'\x00\x00\x00\x00\x00\x00\x00\x00'
p124
tp125
Rp126
sg40
I493489
ssS'MCMAHON JEFFREY'
p127
(dp128
g3
I2355
sg4
g5
sg6
I137108
sg7
I00
sg8
g5
sg9
S'jeffrey.mcmahon@enron.com'
p129
sg11
I694862
sg12
g5
sg13
I2228
sg14
g5
sg15
I48
sg16
I297353
sg17
g5
sg18
I2600000
sg19
I1662855
sg20
I58
sg21
I26
sg22
I558801
sg23
I370448
sg24
g25
(g29
S'UUUUUU\xe1?'
p130
tp131
Rp132
sg35
I4099771
sg36
g25
(g29
S'\x82H\x07O38\x99?'
p133
tp134
Rp135
sg40
I1104054
ssS'HORTON STANLEY C'
p136
(dp137
g3
I2350
sg4
I3131860
sg6
g80
sg7
I00
sg8
g5
sg9
S'stanley.horton@enron.com'
p138
sg11
g5
sg12
g5
sg13
I1074
sg14
g5
sg15
I1073
sg16
g84
sg17
g5
sg18
g87
sg19
I7256648
sg20
I44
sg21
I15
sg22
I2046079
sg23
g90
sg24
g25
(g29
S'["pJH\xa1\x8c?'
p139
tp140
Rp141
sg35
I3131860
sg36
g25
(g29
S'\x9f\x18\xc9c:,\x93?'
p142
tp143
Rp144
sg40
I5210569
ssS'PIPER GREGORY F'
p145
(dp146
g3
I1238
sg4
I1130036
sg6
I43057
sg7
I00
sg8
I-33333
sg9
S'greg.piper@enron.com'
p147
sg11
g5
sg12
I-409554
sg13
I742
sg14
g5
sg15
I222
sg16
I778
sg17
g5
sg18
I400000
sg19
I880290
sg20
I61
sg21
I48
sg22
I409554
sg23
I197091
sg24
g25
(g29
S'\xd0\xba\xc1\x14\xf9\xac\xcb?'
p148
tp149
Rp150
sg35
I1737629
sg36
g25
(g29
S'\xc7\xda\x8d;P:\xa9?'
p151
tp152
Rp153
sg40
I880290
ssS'HUMPHREY GENE E'
p154
(dp155
g3
I128
sg4
I2964506
sg6
I4994
sg7
I00
sg8
g5
sg9
S'gene.humphrey@enron.com'
p156
sg11
g5
sg12
g5
sg13
I119
sg14
g5
sg15
I17
sg16
g84
sg17
g5
sg18
g87
sg19
I2282768
sg20
I10
sg21
I17
sg22
g25
(g29
S'\x00\x00\x00\x00 \xec\x1aA'
p157
tp158
Rp159
sg23
I130724
sg24
g25
(g29
S'\x00\x00\x00\x00\x00\x00\xf0?'
p160
tp161
Rp162
sg35
I3100224
sg36
g25
(g29
S'\x00\x00\x00\x00\x00\x00\xb4?'
p163
tp164
Rp165
sg40
I2282768
ssS'UMANOFF ADAM S'
p166
(dp167
g3
I111
sg4
g5
sg6
I53122
sg7
I00
sg8
g5
sg9
S'adam.umanoff@enron.com'
p168
sg11
g5
sg12
g5
sg13
I41
sg14
g5
sg15
I18
sg16
g84
sg17
g5
sg18
I788750
sg19
g25
(g29
S'\x00\x00\x00\x00\x80\xb50A'
p169
tp170
Rp171
sg20
I12
sg21
I0
sg22
g159
sg23
I288589
sg24
g25
(g29
S'\x00\x00\x00\x00\x00\x00\x00\x00'
p172
tp173
Rp174
sg35
I1130461
sg36
g25
(g29
S'\xd0\xba\xc1\x14\xf9\xac\xbb?'
p175
tp176
Rp177
sg40
g43
ssS'BLACHMAN JEREMY M'
p178
(dp179
g3
I2475
sg4
g5
sg6
I84208
sg7
I00
sg8
g5
sg9
S'jeremy.blachman@enron.com'
p180
sg11
I831809
sg12
g5
sg13
I2326
sg14
g5
sg15
I14
sg16
I272
sg17
g5
sg18
I850000
sg19
I954354
sg20
I25
sg21
I2
sg22
I189041
sg23
I248546
sg24
g25
(g29
S'\x92$I\x92$I\xc2?'
p181
tp182
Rp183
sg35
I2014835
sg36
g25
(g29
S'[\xbfR\xa0\xd6\xaf\x84?'
p184
tp185
Rp186
sg40
I765313
ssS'SUNDE MARTIN'
p187
(dp188
g3
I2647
sg4
g5
sg6
g80
sg7
I00
sg8
g5
sg9
S'marty.sunde@enron.com'
p189
sg11
I476451
sg12
g5
sg13
I2565
sg14
g5
sg15
I38
sg16
I111122
sg17
g5
sg18
I700000
sg19
I698920
sg20
I37
sg21
I13
sg22
I698920
sg23
I257486
sg24
g25
(g29
S'Q^Cy\r\xe5\xd5?'
p190
tp191
Rp192
sg35
I1545059
sg36
g25
(g29
S'\x8fS`D\x8b\xa0\x8c?'
p193
tp194
Rp195
sg40
g43
ssS'GIBBS DANA R'
p196
(dp197
g3
I169
sg4
I504610
sg6
g80
sg7
I00
sg8
g5
sg9
S'dana.gibbs@enron.com'
p198
sg11
I461912
sg12
g5
sg13
I23
sg14
g5
sg15
I12
sg16
g84
sg17
g5
sg18
g87
sg19
I2218275
sg20
I0
sg21
I0
sg22
g159
sg23
g90
sg24
g25
(g29
S'\x00\x00\x00\x00\x00\x00\x00\x00'
p199
tp200
Rp201
sg35
I966522
sg36
g25
(g29
S'\x00\x00\x00\x00\x00\x00\x00\x00'
p202
tp203
Rp204
sg40
I2218275
ssS'LOWRY CHARLES P'
p205
(dp206
g3
g48
sg4
g5
sg6
g80
sg7
I00
sg8
g5
sg9
g5
sg11
g5
sg12
I-153686
sg13
g51
sg14
g5
sg15
g54
sg16
g84
sg17
g5
sg18
g87
sg19
I372205
sg20
g57
sg21
g60
sg22
I153686
sg23
g90
sg24
g25
(g29
S'\xfa\x18\x9c\x8f\xc1\xf9\xc8?'
p207
tp208
Rp209
sg35
g96
sg36
g25
(g29
S"\xf4'\x19\x8bj\x98\x9d?"
p210
tp211
Rp212
sg40
I372205
ssS'COLWELL WESLEY'
p213
(dp214
g3
I1758
sg4
I27610
sg6
I16514
sg7
I01
sg8
I-144062
sg9
S'wes.colwell@enron.com'
p215
sg11
g5
sg12
g5
sg13
I1132
sg14
g5
sg15
I40
sg16
I101740
sg17
g5
sg18
I1200000
sg19
I698242
sg20
I240
sg21
I11
sg22
I698242
sg23
I288542
sg24
g25
(g29
S'\x9a\x99\x99\x99\x99\x99\xd1?'
p216
tp217
Rp218
sg35
I1490344
sg36
g25
(g29
S'w\x18\x14ury\xc1?'
p219
tp220
Rp221
sg40
g43
ssS'MULLER MARK S'
p222
(dp223
g3
I136
sg4
I842924
sg6
g80
sg7
I00
sg8
I-719000
sg9
S's..muller@enron.com'
p224
sg11
I1725545
sg12
g5
sg13
I114
sg14
g5
sg15
I16
sg16
I947
sg17
g5
sg18
I1100000
sg19
I1416848
sg20
I12
sg21
I0
sg22
I360528
sg23
I251654
sg24
g25
(g29
S'\x00\x00\x00\x00\x00\x00\x00\x00'
p225
tp226
Rp227
sg35
I3202070
sg36
g25
(g29
S'\x97\x96\x96\x96\x96\x96\xb6?'
p228
tp229
Rp230
sg40
I1056320
ssS'JACKSON CHARLENE R'
p231
(dp232
g3
I258
sg4
g5
sg6
I10181
sg7
I00
sg8
g5
sg9
S'charlene.jackson@enron.com'
p233
sg11
g5
sg12
g5
sg13
I117
sg14
g5
sg15
I56
sg16
I2435
sg17
g5
sg18
I250000
sg19
I725735
sg20
I25
sg21
I19
sg22
I540672
sg23
I288558
sg24
g25
(g29
S'n\xdb\xb6m\xdb\xb6\xd5?'
p234
tp235
Rp236
sg35
I551174
sg36
g25
(g29
S'4\xe6\x8c9c\xce\xb8?'
p237
tp238
Rp239
sg40
I185063
ssS'WESTFAHL RICHARD K'
p240
(dp241
g3
g48
sg4
g5
sg6
I51870
sg7
I00
sg8
I-10800
sg9
S'dick.westfahl@enron.com'
p242
sg11
I256191
sg12
g5
sg13
g51
sg14
g5
sg15
g54
sg16
I401130
sg17
g5
sg18
g87
sg19
I384930
sg20
g57
sg21
g60
sg22
I384930
sg23
I63744
sg24
g25
(g29
S'\xfa\x18\x9c\x8f\xc1\xf9\xc8?'
p243
tp244
Rp245
sg35
I762135
sg36
g25
(g29
S"\xf4'\x19\x8bj\x98\x9d?"
p246
tp247
Rp248
sg40
g43
ssS'WALTERS GARETH W'
p249
(dp250
g3
g48
sg4
I53625
sg6
I33785
sg7
I00
sg8
g5
sg9
g5
sg11
g5
sg12
g5
sg13
g51
sg14
g5
sg15
g54
sg16
g84
sg17
g5
sg18
g87
sg19
I1030329
sg20
g57
sg21
g60
sg22
g159
sg23
g90
sg24
g25
(g29
S'\xfa\x18\x9c\x8f\xc1\xf9\xc8?'
p251
tp252
Rp253
sg35
I87410
sg36
g25
(g29
S"\xf4'\x19\x8bj\x98\x9d?"
p254
tp255
Rp256
sg40
I1030329
ssS'WALLS JR ROBERT H'
p257
(dp258
g3
I671
sg4
g5
sg6
I50936
sg7
I00
sg8
g5
sg9
S'rob.walls@enron.com'
p259
sg11
I540751
sg12
g5
sg13
I215
sg14
g5
sg15
I146
sg16
I2
sg17
g5
sg18
I850000
sg19
I5898997
sg20
I17
sg21
I0
sg22
I1552453
sg23
I357091
sg24
g25
(g29
S'\x00\x00\x00\x00\x00\x00\x00\x00'
p260
tp261
Rp262
sg35
I1798780
sg36
g25
(g29
S',\xf4\x80\x92\x80\xf1\x99?'
p263
tp264
Rp265
sg40
I4346544
ssS'KITCHEN LOUISE'
p266
(dp267
g3
I8305
sg4
g5
sg6
I5774
sg7
I00
sg8
g5
sg9
S'louise.kitchen@enron.com'
p268
sg11
g5
sg12
g5
sg13
I3669
sg14
g5
sg15
I1728
sg16
I93925
sg17
g5
sg18
I3100000
sg19
I547143
sg20
I251
sg21
I194
sg22
I466101
sg23
I271442
sg24
g25
(g29
S'\xdaKh/\xa1\xbd\xbc?'
p269
tp270
Rp271
sg35
I3471141
sg36
g25
(g29
S'ud\x15\xea\xb6\xf2\x9e?'
p272
tp273
Rp274
sg40
I81042
ssS'CHAN RONNIE'
p275
(dp276
g3
g48
sg4
g5
sg6
g80
sg7
I00
sg8
I-98784
sg9
g5
sg11
g5
sg12
I-32460
sg13
g51
sg14
g5
sg15
g54
sg16
g84
sg17
I98784
sg18
g87
sg19
g171
sg20
g57
sg21
g60
sg22
I32460
sg23
g90
sg24
g25
(g29
S'\xfa\x18\x9c\x8f\xc1\xf9\xc8?'
p277
tp278
Rp279
sg35
g96
sg36
g25
(g29
S"\xf4'\x19\x8bj\x98\x9d?"
p280
tp281
Rp282
sg40
g43
ssS'BELFER ROBERT'
p283
(dp284
g3
g48
sg4
I-102500
sg6
g80
sg7
I00
sg8
g5
sg9
g5
sg11
g5
sg12
I44093
sg13
g51
sg14
g5
sg15
g54
sg16
g84
sg17
I3285
sg18
g87
sg19
I-44093
sg20
g57
sg21
g60
sg22
g159
sg23
g90
sg24
g25
(g29
S'\xfa\x18\x9c\x8f\xc1\xf9\xc8?'
p285
tp286
Rp287
sg35
I102500
sg36
g25
(g29
S"\xf4'\x19\x8bj\x98\x9d?"
p288
tp289
Rp290
sg40
I3285
ssS'SHANKMAN JEFFREY A'
p291
(dp292
g3
I3221
sg4
g5
sg6
I178979
sg7
I00
sg8
g5
sg9
S'jeffrey.shankman@enron.com'
p293
sg11
I554422
sg12
g5
sg13
I1730
sg14
g5
sg15
I2681
sg16
I1191
sg17
g5
sg18
I2000000
sg19
I2072035
sg20
I94
sg21
I83
sg22
I630137
sg23
I304110
sg24
g25
(g29
S'\xb3\xb1\xd3O\x9c\xb3\x9f?'
p294
tp295
Rp296
sg35
I3038702
sg36
g25
(g29
S'f[\xfajF\xe2\x9d?'
p297
tp298
Rp299
sg40
I1441898
ssS'WODRASKA JOHN'
p300
(dp301
g3
g48
sg4
g5
sg6
g80
sg7
I00
sg8
g5
sg9
S'john.wodraska@enron.com'
p302
sg11
g5
sg12
g5
sg13
g51
sg14
g5
sg15
g54
sg16
I189583
sg17
g5
sg18
g87
sg19
g171
sg20
g57
sg21
g60
sg22
g159
sg23
g90
sg24
g25
(g29
S'\xfa\x18\x9c\x8f\xc1\xf9\xc8?'
p303
tp304
Rp305
sg35
I189583
sg36
g25
(g29
S"\xf4'\x19\x8bj\x98\x9d?"
p306
tp307
Rp308
sg40
g43
ssS'BERGSIEKER RICHARD P'
p309
(dp310
g3
I383
sg4
g5
sg6
I59175
sg7
I00
sg8
I-485813
sg9
S'rick.bergsieker@enron.com'
p311
sg11
I180250
sg12
g5
sg13
I233
sg14
g5
sg15
I59
sg16
I427316
sg17
g5
sg18
I250000
sg19
I659249
sg20
I4
sg21
I0
sg22
I659249
sg23
I187922
sg24
g25
(g29
S'\x00\x00\x00\x00\x00\x00\x00\x00'
p312
tp313
Rp314
sg35
I618850
sg36
g25
(g29
S'\xe2R|\xba\x97c\x85?'
p315
tp316
Rp317
sg40
g43
ssS'URQUHART JOHN A'
p318
(dp319
g3
g48
sg4
g5
sg6
I228656
sg7
I00
sg8
I-36666
sg9
g5
sg11
g5
sg12
g5
sg13
g51
sg14
g5
sg15
g54
sg16
g84
sg17
I36666
sg18
g87
sg19
g171
sg20
g57
sg21
g60
sg22
g159
sg23
g90
sg24
g25
(g29
S'\xfa\x18\x9c\x8f\xc1\xf9\xc8?'
p320
tp321
Rp322
sg35
I228656
sg36
g25
(g29
S"\xf4'\x19\x8bj\x98\x9d?"
p323
tp324
Rp325
sg40
g43
ssS'BIBI PHILIPPE A'
p326
(dp327
g3
I1607
sg4
g5
sg6
I38559
sg7
I00
sg8
g5
sg9
S'philippe.bibi@enron.com'
p328
sg11
I369721
sg12
g5
sg13
I1336
sg14
g5
sg15
I40
sg16
I425688
sg17
g5
sg18
I1000000
sg19
I1843816
sg20
I23
sg21
I8
sg22
I378082
sg23
I213625
sg24
g25
(g29
S'\x9a\x99\x99\x99\x99\x99\xc9?'
p329
tp330
Rp331
sg35
I2047593
sg36
g25
(g29
S'\xc6Ef\x92\xcfO\x8d?'
p332
tp333
Rp334
sg40
I1465734
ssS'RIEKER PAULA H'
p335
(dp336
g3
I1328
sg4
I214678
sg6
I33271
sg7
I01
sg8
I-100000
sg9
S'paula.rieker@enron.com'
p337
sg11
g5
sg12
g5
sg13
I1258
sg14
g5
sg15
I82
sg16
I1950
sg17
g5
sg18
I700000
sg19
I1918887
sg20
I35
sg21
I48
sg22
I283649
sg23
I249201
sg24
g25
(g29
S'\xbb\x12\xb5+Q\xbb\xe2?'
p338
tp339
Rp340
sg35
I1099100
sg36
g25
(g29
S'\x82\x12\xdeh\xea\xfc\x9a?'
p341
tp342
Rp343
sg40
I1635238
ssS'WHALEY DAVID A'
p344
(dp345
g3
g48
sg4
g5
sg6
g80
sg7
I00
sg8
g5
sg9
g5
sg11
g5
sg12
g5
sg13
g51
sg14
g5
sg15
g54
sg16
g84
sg17
g5
sg18
g87
sg19
I98718
sg20
g57
sg21
g60
sg22
g159
sg23
g90
sg24
g25
(g29
S'\xfa\x18\x9c\x8f\xc1\xf9\xc8?'
p346
tp347
Rp348
sg35
g96
sg36
g25
(g29
S"\xf4'\x19\x8bj\x98\x9d?"
p349
tp350
Rp351
sg40
I98718
ssS'BECK SALLY W'
p352
(dp353
g3
I7315
sg4
g5
sg6
I37172
sg7
I00
sg8
g5
sg9
S'sally.beck@enron.com'
p354
sg11
g5
sg12
g5
sg13
I2639
sg14
g5
sg15
I4343
sg16
I566
sg17
g5
sg18
I700000
sg19
I126027
sg20
I144
sg21
I386
sg22
I126027
sg23
I231330
sg24
g25
(g29
S']\x92\xdbe\xc0\xc0\xb6?'
p355
tp356
Rp357
sg35
I969068
sg36
g25
(g29
S'A+\xa4\xbft(\x94?'
p358
tp359
Rp360
sg40
g43
ssS'HAUG DAVID L'
p361
(dp362
g3
I573
sg4
g5
sg6
I475
sg7
I00
sg8
g5
sg9
S'david.haug@enron.com'
p363
sg11
g5
sg12
g5
sg13
I471
sg14
g5
sg15
I19
sg16
g84
sg17
g5
sg18
g87
sg19
I2217299
sg20
I4
sg21
I7
sg22
I2217299
sg23
g90
sg24
g25
(g29
S'Cy\r\xe55\x94\xd7?'
p364
tp365
Rp366
sg35
I475
sg36
g25
(g29
S'M\xe4\x15\xfb\xe6\x97|?'
p367
tp368
Rp369
sg40
g43
ssS'ECHOLS JOHN B'
p370
(dp371
g3
g48
sg4
g5
sg6
I21530
sg7
I00
sg8
g5
sg9
S'john.echols@enron.com'
p372
sg11
I2234774
sg12
g5
sg13
g51
sg14
g5
sg15
g54
sg16
I53775
sg17
g5
sg18
I200000
sg19
I1008941
sg20
g57
sg21
g60
sg22
I407503
sg23
I182245
sg24
g25
(g29
S'\xfa\x18\x9c\x8f\xc1\xf9\xc8?'
p373
tp374
Rp375
sg35
I2692324
sg36
g25
(g29
S"\xf4'\x19\x8bj\x98\x9d?"
p376
tp377
Rp378
sg40
I601438
ssS'MENDELSOHN JOHN'
p379
(dp380
g3
g48
sg4
g5
sg6
I148
sg7
I00
sg8
I-103750
sg9
g5
sg11
g5
sg12
g5
sg13
g51
sg14
g5
sg15
g54
sg16
g84
sg17
I103750
sg18
g87
sg19
g171
sg20
g57
sg21
g60
sg22
g159
sg23
g90
sg24
g25
(g29
S'\xfa\x18\x9c\x8f\xc1\xf9\xc8?'
p381
tp382
Rp383
sg35
I148
sg36
g25
(g29
S"\xf4'\x19\x8bj\x98\x9d?"
p384
tp385
Rp386
sg40
g43
ssS'HICKERSON GARY J'
p387
(dp388
g3
I1320
sg4
g5
sg6
I98849
sg7
I00
sg8
g5
sg9
S'gary.hickerson@enron.com'
p389
sg11
I69223
sg12
g5
sg13
I900
sg14
g5
sg15
I27
sg16
I1936
sg17
g5
sg18
I1700000
sg19
I441096
sg20
I40
sg21
I1
sg22
I441096
sg23
I211788
sg24
g25
(g29
S'h/\xa1\xbd\x84\xf6\xa2?'
p390
tp391
Rp392
sg35
I2081796
sg36
g25
(g29
S'\x08\x1f|\xf0\xc1\x07\x9f?'
p393
tp394
Rp395
sg40
g43
ssS'CLINE KENNETH W'
p396
(dp397
g3
g48
sg4
g5
sg6
g80
sg7
I00
sg8
g5
sg9
g5
sg11
g5
sg12
I-472568
sg13
g51
sg14
g5
sg15
g54
sg16
g84
sg17
g5
sg18
g87
sg19
I189518
sg20
g57
sg21
g60
sg22
I662086
sg23
g90
sg24
g25
(g29
S'\xfa\x18\x9c\x8f\xc1\xf9\xc8?'
p398
tp399
Rp400
sg35
g96
sg36
g25
(g29
S"\xf4'\x19\x8bj\x98\x9d?"
p401
tp402
Rp403
sg40
g43
ssS'LEWIS RICHARD'
p404
(dp405
g3
I952
sg4
g5
sg6
g80
sg7
I00
sg8
g5
sg9
S'richard.lewis@enron.com'
p406
sg11
g5
sg12
g5
sg13
I739
sg14
g5
sg15
I26
sg16
g84
sg17
g5
sg18
g87
sg19
I850477
sg20
I10
sg21
I0
sg22
g159
sg23
g90
sg24
g25
(g29
S'\x00\x00\x00\x00\x00\x00\x00\x00'
p407
tp408
Rp409
sg35
g96
sg36
g25
(g29
S'\x16:\x83\x15:\x83\x85?'
p410
tp411
Rp412
sg40
I850477
ssS'HAYES ROBERT E'
p413
(dp414
g3
I504
sg4
I7961
sg6
g80
sg7
I00
sg8
g5
sg9
S'robert.hayes@enron.com'
p415
sg11
g5
sg12
g5
sg13
I50
sg14
g5
sg15
I12
sg16
g84
sg17
g5
sg18
g87
sg19
I151418
sg20
I16
sg21
I0
sg22
I151418
sg23
g90
sg24
g25
(g29
S'\x00\x00\x00\x00\x00\x00\x00\x00'
p416
tp417
Rp418
sg35
I7961
sg36
g25
(g29
S'\x10\x04A\x10\x04A\xa0?'
p419
tp420
Rp421
sg40
g43
ssS'MCCARTY DANNY J'
p422
(dp423
g3
I1433
sg4
g5
sg6
g80
sg7
I00
sg8
g5
sg9
S'danny.mccarty@enron.com'
p424
sg11
g5
sg12
g5
sg13
I508
sg14
g5
sg15
I215
sg16
g84
sg17
g5
sg18
g87
sg19
I758931
sg20
I25
sg21
I2
sg22
I94556
sg23
g90
sg24
g25
(g29
S'\x90\xd10\x01\x19\r\x83?'
p425
tp426
Rp427
sg35
g96
sg36
g25
(g29
S'\x15\xc3\x1c\xb7W\xdd\x91?'
p428
tp429
Rp430
sg40
I664375
ssS'KOPPER MICHAEL J'
p431
(dp432
g3
g48
sg4
g5
sg6
I118134
sg7
I01
sg8
g5
sg9
S'michael.kopper@enron.com'
p433
sg11
I602671
sg12
g5
sg13
g51
sg14
g5
sg15
g54
sg16
I907502
sg17
g5
sg18
I800000
sg19
I985032
sg20
g57
sg21
g60
sg22
I985032
sg23
I224305
sg24
g25
(g29
S'\xfa\x18\x9c\x8f\xc1\xf9\xc8?'
p434
tp435
Rp436
sg35
I2652612
sg36
g25
(g29
S"\xf4'\x19\x8bj\x98\x9d?"
p437
tp438
Rp439
sg40
g43
ssS'LEFF DANIEL P'
p440
(dp441
g3
I2822
sg4
g5
sg6
g80
sg7
I00
sg8
g5
sg9
S'dan.leff@enron.com'
p442
sg11
I1387399
sg12
g5
sg13
I2672
sg14
g5
sg15
I63
sg16
I3083
sg17
g5
sg18
I1000000
sg19
I360528
sg20
I67
sg21
I14
sg22
I360528
sg23
I273746
sg24
g25
(g29
S'\x1c\xc7q\x1c\xc7q\xcc?'
p443
tp444
Rp445
sg35
I2664228
sg36
g25
(g29
S'o\x8a\xd7t\xd4O\x98?'
p446
tp447
Rp448
sg40
g43
ssS'LAVORATO JOHN J'
p449
(dp450
g3
I7259
sg4
g5
sg6
I49537
sg7
I00
sg8
g5
sg9
S'john.lavorato@enron.com'
p451
sg11
I2035380
sg12
g5
sg13
I3962
sg14
g5
sg15
I2585
sg16
I1552
sg17
g5
sg18
I8000000
sg19
I5167144
sg20
I528
sg21
I411
sg22
I1008149
sg23
I339288
sg24
g25
(g29
S'_\xc5\xcf\xfe\xebY\xc4?'
p452
tp453
Rp454
sg35
I10425757
sg36
g25
(g29
S'\xdc\xe0\xc8@\xe9\x9e\xb2?'
p455
tp456
Rp457
sg40
I4158995
ssS'BERBERIAN DAVID'
p458
(dp459
g3
g48
sg4
g5
sg6
I11892
sg7
I00
sg8
g5
sg9
S'david.berberian@enron.com'
p460
sg11
g5
sg12
g5
sg13
g51
sg14
g5
sg15
g54
sg16
g84
sg17
g5
sg18
g87
sg19
I2493616
sg20
g57
sg21
g60
sg22
I869220
sg23
I216582
sg24
g25
(g29
S'\xfa\x18\x9c\x8f\xc1\xf9\xc8?'
p461
tp462
Rp463
sg35
I228474
sg36
g25
(g29
S"\xf4'\x19\x8bj\x98\x9d?"
p464
tp465
Rp466
sg40
I1624396
ssS'DETMERING TIMOTHY J'
p467
(dp468
g3
g48
sg4
I875307
sg6
I52255
sg7
I00
sg8
I-775241
sg9
S'timothy.detmering@enron.com'
p469
sg11
I415657
sg12
I-315068
sg13
g51
sg14
g5
sg15
g54
sg16
I1105
sg17
g5
sg18
I425000
sg19
I2027865
sg20
g57
sg21
g60
sg22
I315068
sg23
I210500
sg24
g25
(g29
S'\xfa\x18\x9c\x8f\xc1\xf9\xc8?'
p470
tp471
Rp472
sg35
I1204583
sg36
g25
(g29
S"\xf4'\x19\x8bj\x98\x9d?"
p473
tp474
Rp475
sg40
I2027865
ssS'WAKEHAM JOHN'
p476
(dp477
g3
g48
sg4
g5
sg6
I103773
sg7
I00
sg8
g5
sg9
g5
sg11
g5
sg12
g5
sg13
g51
sg14
g5
sg15
g54
sg16
g84
sg17
I109298
sg18
g87
sg19
g171
sg20
g57
sg21
g60
sg22
g159
sg23
g90
sg24
g25
(g29
S'\xfa\x18\x9c\x8f\xc1\xf9\xc8?'
p478
tp479
Rp480
sg35
I213071
sg36
g25
(g29
S"\xf4'\x19\x8bj\x98\x9d?"
p481
tp482
Rp483
sg40
g43
ssS'POWERS WILLIAM'
p484
(dp485
g3
I653
sg4
g5
sg6
g80
sg7
I00
sg8
I-17500
sg9
S'ken.powers@enron.com'
p486
sg11
g5
sg12
g5
sg13
I12
sg14
g5
sg15
I26
sg16
g84
sg17
I17500
sg18
g87
sg19
g171
sg20
I0
sg21
I0
sg22
g159
sg23
g90
sg24
g25
(g29
S'\x00\x00\x00\x00\x00\x00\x00\x00'
p487
tp488
Rp489
sg35
g96
sg36
g25
(g29
S'\x00\x00\x00\x00\x00\x00\x00\x00'
p490
tp491
Rp492
sg40
g43
ssS'GOLD JOSEPH'
p493
(dp494
g3
g48
sg4
g5
sg6
g80
sg7
I00
sg8
g5
sg9
S'joe.gold@enron.com'
p495
sg11
I304805
sg12
g5
sg13
g51
sg14
g5
sg15
g54
sg16
I819288
sg17
g5
sg18
I750000
sg19
I877611
sg20
g57
sg21
g60
sg22
I441096
sg23
I272880
sg24
g25
(g29
S'\xfa\x18\x9c\x8f\xc1\xf9\xc8?'
p496
tp497
Rp498
sg35
I2146973
sg36
g25
(g29
S"\xf4'\x19\x8bj\x98\x9d?"
p499
tp500
Rp501
sg40
I436515
ssS'BANNANTINE JAMES M'
p502
(dp503
g3
I566
sg4
g5
sg6
I56301
sg7
I00
sg8
I-5104
sg9
S'james.bannantine@enron.com'
p504
sg11
g5
sg12
I-560222
sg13
I465
sg14
g5
sg15
I29
sg16
I864523
sg17
g5
sg18
g87
sg19
I5243487
sg20
I39
sg21
I0
sg22
I1757552
sg23
I477
sg24
g25
(g29
S'\x00\x00\x00\x00\x00\x00\x00\x00'
p505
tp506
Rp507
sg35
I916197
sg36
g25
(g29
S'\xdd\xe49@\xbb\xa3\xb1?'
p508
tp509
Rp510
sg40
I4046157
ssS'DUNCAN JOHN H'
p511
(dp512
g3
g48
sg4
g5
sg6
g80
sg7
I00
sg8
I-25000
sg9
g5
sg11
g5
sg12
g5
sg13
g51
sg14
g5
sg15
g54
sg16
g84
sg17
I102492
sg18
g87
sg19
I371750
sg20
g57
sg21
g60
sg22
g159
sg23
g90
sg24
g25
(g29
S'\xfa\x18\x9c\x8f\xc1\xf9\xc8?'
p513
tp514
Rp515
sg35
I77492
sg36
g25
(g29
S"\xf4'\x19\x8bj\x98\x9d?"
p516
tp517
Rp518
sg40
I371750
ssS'SHAPIRO RICHARD S'
p519
(dp520
g3
I15149
sg4
g5
sg6
I137767
sg7
I00
sg8
g5
sg9
S'richard.shapiro@enron.com'
p521
sg11
g5
sg12
g5
sg13
I4527
sg14
g5
sg15
I1215
sg16
I705
sg17
g5
sg18
I650000
sg19
I987001
sg20
I74
sg21
I65
sg22
I379164
sg23
I269076
sg24
g25
(g29
S'\xb3\xd2\xe8\x11\x15d\xab?'
p522
tp523
Rp524
sg35
I1057548
sg36
g25
(g29
S'\xa58\x88o\x18\x02t?'
p525
tp526
Rp527
sg40
I607837
ssS'SHERRIFF JOHN R'
p528
(dp529
g3
I3187
sg4
g5
sg6
g80
sg7
I00
sg8
g5
sg9
S'john.sherriff@enron.com'
p530
sg11
I554422
sg12
g5
sg13
I2103
sg14
g5
sg15
I92
sg16
I1852186
sg17
g5
sg18
I1500000
sg19
I3128982
sg20
I28
sg21
I23
sg22
I1293424
sg23
I428780
sg24
g25
(g29
S'\x00\x00\x00\x00\x00\x00\xd0?'
p531
tp532
Rp533
sg35
I4335388
sg36
g25
(g29
S'\x9cn%\x9a;\xfe\x81?'
p534
tp535
Rp536
sg40
I1835558
ssS'SHELBY REX'
p537
(dp538
g3
I225
sg4
g5
sg6
I22884
sg7
I01
sg8
I-4167
sg9
S'rex.shelby@enron.com'
p539
sg11
g5
sg12
g5
sg13
I91
sg14
g5
sg15
I39
sg16
I1573324
sg17
g5
sg18
I200000
sg19
I2493616
sg20
I13
sg21
I14
sg22
I869220
sg23
I211844
sg24
g25
(g29
S'\x97o\xf9\x96o\xf9\xd6?'
p540
tp541
Rp542
sg35
I2003885
sg36
g25
(g29
S'\xear\xfb\x83\x0c\x95\xad?'
p543
tp544
Rp545
sg40
I1624396
ssS'LEMAISTRE CHARLES'
p546
(dp547
g3
g48
sg4
g5
sg6
g80
sg7
I00
sg8
I-25000
sg9
g5
sg11
g5
sg12
g5
sg13
g51
sg14
g5
sg15
g54
sg16
g84
sg17
I112492
sg18
g87
sg19
I412878
sg20
g57
sg21
g60
sg22
g159
sg23
g90
sg24
g25
(g29
S'\xfa\x18\x9c\x8f\xc1\xf9\xc8?'
p548
tp549
Rp550
sg35
I87492
sg36
g25
(g29
S"\xf4'\x19\x8bj\x98\x9d?"
p551
tp552
Rp553
sg40
I412878
ssS'DEFFNER JOSEPH M'
p554
(dp555
g3
I714
sg4
g5
sg6
I41626
sg7
I00
sg8
g5
sg9
S'joseph.deffner@enron.com'
p556
sg11
I335349
sg12
g5
sg13
I552
sg14
g5
sg15
I74
sg16
I25553
sg17
g5
sg18
I600000
sg19
I159211
sg20
I115
sg21
I4
sg22
I141833
sg23
I206121
sg24
g25
(g29
S'\xd0\xba\xc1\x14\xf9\xac\xab?'
p557
tp558
Rp559
sg35
I1208649
sg36
g25
(g29
S'U\xc2\x9dT\xc2\x9d\xc4?'
p560
tp561
Rp562
sg40
I17378
ssS'KISHKILL JOSEPH G'
p563
(dp564
g3
g48
sg4
g5
sg6
I116335
sg7
I00
sg8
I-51042
sg9
S'joe.kishkill@enron.com'
p565
sg11
g5
sg12
g5
sg13
g51
sg14
g5
sg15
g54
sg16
I465357
sg17
g5
sg18
g87
sg19
I1034346
sg20
g57
sg21
g60
sg22
I1034346
sg23
I174246
sg24
g25
(g29
S'\xfa\x18\x9c\x8f\xc1\xf9\xc8?'
p566
tp567
Rp568
sg35
I704896
sg36
g25
(g29
S"\xf4'\x19\x8bj\x98\x9d?"
p569
tp570
Rp571
sg40
g43
ssS'WHALLEY LAWRENCE G'
p572
(dp573
g3
I6019
sg4
g5
sg6
I57838
sg7
I00
sg8
g5
sg9
S'greg.whalley@enron.com'
p574
sg11
I808346
sg12
g5
sg13
I3920
sg14
g5
sg15
I556
sg16
I301026
sg17
g5
sg18
I3000000
sg19
I6079137
sg20
I186
sg21
I24
sg22
I2796177
sg23
I510364
sg24
g25
(g29
S"'!\x8a\xbf\xc8\x19\xa6?"
p575
tp576
Rp577
sg35
I4677574
sg36
g25
(g29
S'dD\xe8\xb9\xcf\xa4\x9f?'
p578
tp579
Rp580
sg40
I3282960
ssS'MCCONNELL MICHAEL S'
p581
(dp582
g3
I3329
sg4
g5
sg6
I81364
sg7
I00
sg8
g5
sg9
S'mike.mcconnell@enron.com'
p583
sg11
I554422
sg12
g5
sg13
I2189
sg14
g5
sg15
I2742
sg16
I540
sg17
g5
sg18
I1100000
sg19
I3101279
sg20
I92
sg21
I194
sg22
I1478269
sg23
I365038
sg24
g25
(g29
S'8bvr\xc1\x1c\xb2?'
p584
tp585
Rp586
sg35
I2101364
sg36
g25
(g29
S'z\xcd\x90\xa5\x97L\x9c?'
p587
tp588
Rp589
sg40
I1623010
ssS'PIRO JIM'
p590
(dp591
g3
I58
sg4
g5
sg6
g80
sg7
I00
sg8
g5
sg9
S'jim.piro@enron.com'
p592
sg11
g5
sg12
g5
sg13
I3
sg14
g5
sg15
I16
sg16
g84
sg17
g5
sg18
g87
sg19
I47304
sg20
I0
sg21
I1
sg22
I47304
sg23
g90
sg24
g25
(g29
S'\x00\x00\x00\x00\x00\x00\xb0?'
p593
tp594
Rp595
sg35
g96
sg36
g25
(g29
S'\x00\x00\x00\x00\x00\x00\x00\x00'
p596
tp597
Rp598
sg40
g43
ssS'DELAINEY DAVID W'
p599
(dp600
g3
I3093
sg4
g5
sg6
I86174
sg7
I01
sg8
g5
sg9
S'david.delainey@enron.com'
p601
sg11
I1294981
sg12
g5
sg13
I2097
sg14
g5
sg15
I3069
sg16
I1661
sg17
g5
sg18
I3000000
sg19
I3614261
sg20
I66
sg21
I609
sg22
I1323148
sg23
I365163
sg24
g25
(g29
S'f\x99e\x96Yf\xc9?'
p602
tp603
Rp604
sg35
I4747979
sg36
g25
(g29
S']\xef\xe4\xea\xc2\xd9\x95?'
p605
tp606
Rp607
sg40
I2291113
ssS'SULLIVAN-SHAKLOVITZ COLLEEN'
p608
(dp609
g3
g48
sg4
I181993
sg6
g80
sg7
I00
sg8
g5
sg9
g5
sg11
I554422
sg12
g5
sg13
g51
sg14
g5
sg15
g54
sg16
I162
sg17
g5
sg18
I100000
sg19
I1362375
sg20
g57
sg21
g60
sg22
g159
sg23
I162779
sg24
g25
(g29
S'\xfa\x18\x9c\x8f\xc1\xf9\xc8?'
p610
tp611
Rp612
sg35
I999356
sg36
g25
(g29
S"\xf4'\x19\x8bj\x98\x9d?"
p613
tp614
Rp615
sg40
I1362375
ssS'WROBEL BRUCE'
p616
(dp617
g3
g48
sg4
g5
sg6
g80
sg7
I00
sg8
g5
sg9
g5
sg11
g5
sg12
g5
sg13
g51
sg14
g5
sg15
g54
sg16
g84
sg17
g5
sg18
g87
sg19
I139130
sg20
g57
sg21
g60
sg22
g159
sg23
g90
sg24
g25
(g29
S'\xfa\x18\x9c\x8f\xc1\xf9\xc8?'
p618
tp619
Rp620
sg35
g96
sg36
g25
(g29
S"\xf4'\x19\x8bj\x98\x9d?"
p621
tp622
Rp623
sg40
I139130
ssS'LINDHOLM TOD A'
p624
(dp625
g3
g48
sg4
I204075
sg6
I57727
sg7
I00
sg8
g5
sg9
S'tod.lindholm@enron.com'
p626
sg11
I175000
sg12
g5
sg13
g51
sg14
g5
sg15
g54
sg16
I2630
sg17
g5
sg18
I200000
sg19
I3064208
sg20
g57
sg21
g60
sg22
I514847
sg23
I236457
sg24
g25
(g29
S'\xfa\x18\x9c\x8f\xc1\xf9\xc8?'
p627
tp628
Rp629
sg35
I875889
sg36
g25
(g29
S"\xf4'\x19\x8bj\x98\x9d?"
p630
tp631
Rp632
sg40
I2549361
ssS'MEYER JEROME J'
p633
(dp634
g3
g48
sg4
g5
sg6
I2151
sg7
I00
sg8
I-38346
sg9
g5
sg11
g5
sg12
g5
sg13
g51
sg14
g5
sg15
g54
sg16
g84
sg17
I38346
sg18
g87
sg19
g171
sg20
g57
sg21
g60
sg22
g159
sg23
g90
sg24
g25
(g29
S'\xfa\x18\x9c\x8f\xc1\xf9\xc8?'
p635
tp636
Rp637
sg35
I2151
sg36
g25
(g29
S"\xf4'\x19\x8bj\x98\x9d?"
p638
tp639
Rp640
sg40
g43
ssS'LAY KENNETH L'
p641
(dp642
g3
I4273
sg4
I202911
sg6
I99832
sg7
I01
sg8
I-300000
sg9
S'kenneth.lay@enron.com'
p643
sg11
I3600000
sg12
g5
sg13
I2411
sg14
I81525000
sg15
I36
sg16
I10359729
sg17
g5
sg18
I7000000
sg19
I49110078
sg20
I123
sg21
I16
sg22
I14761694
sg23
I1072321
sg24
g25
(g29
S'\x1c\xc7q\x1c\xc7q\xdc?'
p644
tp645
Rp646
sg35
I103559793
sg36
g25
(g29
S'\xf4-QE\xeby\x9d?'
p647
tp648
Rp649
sg40
I34348384
ssS'BUTTS ROBERT H'
p650
(dp651
g3
g48
sg4
g5
sg6
I9410
sg7
I00
sg8
I-75000
sg9
S'bob.butts@enron.com'
p652
sg11
I175000
sg12
g5
sg13
g51
sg14
g5
sg15
g54
sg16
I150656
sg17
g5
sg18
I750000
sg19
I417619
sg20
g57
sg21
g60
sg22
I417619
sg23
I261516
sg24
g25
(g29
S'\xfa\x18\x9c\x8f\xc1\xf9\xc8?'
p653
tp654
Rp655
sg35
I1271582
sg36
g25
(g29
S"\xf4'\x19\x8bj\x98\x9d?"
p656
tp657
Rp658
sg40
g43
ssS'OLSON CINDY K'
p659
(dp660
g3
I1184
sg4
I77716
sg6
I63791
sg7
I00
sg8
g5
sg9
S'cindy.olson@enron.com'
p661
sg11
I100000
sg12
g5
sg13
I856
sg14
g5
sg15
I52
sg16
I972
sg17
g5
sg18
I750000
sg19
I2606763
sg20
I20
sg21
I15
sg22
I969729
sg23
I329078
sg24
g25
(g29
S"b'vb'v\xd2?"
p662
tp663
Rp664
sg35
I1321557
sg36
g25
(g29
S'\xc2\x14\xf9\xac\x1bL\x91?'
p665
tp666
Rp667
sg40
I1637034
ssS'MCDONALD REBECCA'
p668
(dp669
g3
I894
sg4
g5
sg6
g80
sg7
I00
sg8
g5
sg9
S'rebecca.mcdonald@enron.com'
p670
sg11
g5
sg12
g5
sg13
I720
sg14
g5
sg15
I13
sg16
g84
sg17
g5
sg18
g87
sg19
I1691366
sg20
I54
sg21
I1
sg22
I934065
sg23
g90
sg24
g25
(g29
S'\x14;\xb1\x13;\xb1\xb3?'
p671
tp672
Rp673
sg35
g96
sg36
g25
(g29
S'\xfdy\x95\xc5\x19\xed\xae?'
p674
tp675
Rp676
sg40
I757301
ssS'CUMBERLAND MICHAEL S'
p677
(dp678
g3
g48
sg4
g5
sg6
I22344
sg7
I00
sg8
g5
sg9
g5
sg11
I275000
sg12
g5
sg13
g51
sg14
g5
sg15
g54
sg16
I713
sg17
g5
sg18
I325000
sg19
I207940
sg20
g57
sg21
g60
sg22
I207940
sg23
I184899
sg24
g25
(g29
S'\xfa\x18\x9c\x8f\xc1\xf9\xc8?'
p679
tp680
Rp681
sg35
I807956
sg36
g25
(g29
S"\xf4'\x19\x8bj\x98\x9d?"
p682
tp683
Rp684
sg40
g43
ssS'GAHN ROBERT S'
p685
(dp686
g3
g48
sg4
I73122
sg6
I50080
sg7
I00
sg8
I-1042
sg9
g5
sg11
g5
sg12
g5
sg13
g51
sg14
g5
sg15
g54
sg16
I76547
sg17
g5
sg18
I509870
sg19
I318607
sg20
g57
sg21
g60
sg22
I235370
sg23
I192008
sg24
g25
(g29
S'\xfa\x18\x9c\x8f\xc1\xf9\xc8?'
p687
tp688
Rp689
sg35
I900585
sg36
g25
(g29
S"\xf4'\x19\x8bj\x98\x9d?"
p690
tp691
Rp692
sg40
I83237
ssS'MCCLELLAN GEORGE'
p693
(dp694
g3
I1744
sg4
g5
sg6
I228763
sg7
I00
sg8
I-125000
sg9
S'george.mcclellan@enron.com'
p695
sg11
g5
sg12
g5
sg13
I1469
sg14
g5
sg15
I49
sg16
I51587
sg17
g5
sg18
I900000
sg19
I947861
sg20
I52
sg21
I0
sg22
I441096
sg23
I263413
sg24
g25
(g29
S'\x00\x00\x00\x00\x00\x00\x00\x00'
p696
tp697
Rp698
sg35
I1318763
sg36
g25
(g29
S'\x84\xe8\xf1]8\x88\x9e?'
p699
tp700
Rp701
sg40
I506765
ssS'HERMANN ROBERT J'
p702
(dp703
g3
g48
sg4
g5
sg6
I48357
sg7
I00
sg8
I-280000
sg9
S'robert.hermann@enron.com'
p704
sg11
I150000
sg12
g5
sg13
g51
sg14
g5
sg15
g54
sg16
I416441
sg17
g5
sg18
I700000
sg19
I668132
sg20
g57
sg21
g60
sg22
I480632
sg23
I262663
sg24
g25
(g29
S'\xfa\x18\x9c\x8f\xc1\xf9\xc8?'
p705
tp706
Rp707
sg35
I1297461
sg36
g25
(g29
S"\xf4'\x19\x8bj\x98\x9d?"
p708
tp709
Rp710
sg40
I187500
ssS'SCRIMSHAW MATTHEW'
p711
(dp712
g3
g48
sg4
g5
sg6
g80
sg7
I00
sg8
g5
sg9
S'matthew.scrimshaw@enron.com'
p713
sg11
g5
sg12
g5
sg13
g51
sg14
g5
sg15
g54
sg16
g84
sg17
g5
sg18
g87
sg19
I759557
sg20
g57
sg21
g60
sg22
g159
sg23
g90
sg24
g25
(g29
S'\xfa\x18\x9c\x8f\xc1\xf9\xc8?'
p714
tp715
Rp716
sg35
g96
sg36
g25
(g29
S"\xf4'\x19\x8bj\x98\x9d?"
p717
tp718
Rp719
sg40
I759557
ssS'GATHMANN WILLIAM D'
p720
(dp721
g3
g48
sg4
g5
sg6
g80
sg7
I00
sg8
g5
sg9
g5
sg11
g5
sg12
I-72419
sg13
g51
sg14
g5
sg15
g54
sg16
g84
sg17
g5
sg18
g87
sg19
I1945360
sg20
g57
sg21
g60
sg22
I264013
sg23
g90
sg24
g25
(g29
S'\xfa\x18\x9c\x8f\xc1\xf9\xc8?'
p722
tp723
Rp724
sg35
g96
sg36
g25
(g29
S"\xf4'\x19\x8bj\x98\x9d?"
p725
tp726
Rp727
sg40
I1753766
ssS'HAEDICKE MARK E'
p728
(dp729
g3
I4009
sg4
I2157527
sg6
I76169
sg7
I00
sg8
I-934484
sg9
S'mark.haedicke@enron.com'
p730
sg11
I983346
sg12
I-329825
sg13
I1847
sg14
g5
sg15
I1941
sg16
I52382
sg17
g5
sg18
I1150000
sg19
I803094
sg20
I180
sg21
I61
sg22
I524169
sg23
I374125
sg24
g25
(g29
S'\xf0T\x8cx6\x17\xa0?'
p731
tp732
Rp733
sg35
I3859065
sg36
g25
(g29
S'\\\x8fC\xae\xff\xfc\xa6?'
p734
tp735
Rp736
sg40
I608750
ssS'BOWEN JR RAYMOND M'
p737
(dp738
g3
I1858
sg4
g5
sg6
I65907
sg7
I01
sg8
I-833
sg9
S'raymond.bowen@enron.com'
p739
sg11
I974293
sg12
g5
sg13
I1593
sg14
g5
sg15
I27
sg16
I1621
sg17
g5
sg18
I1350000
sg19
I252055
sg20
I140
sg21
I15
sg22
I252055
sg23
I278601
sg24
g25
(g29
S'r\x1c\xc7q\x1c\xc7\xe1?'
p740
tp741
Rp742
sg35
I2669589
sg36
g25
(g29
S'BqE\x84 J\xb3?'
p743
tp744
Rp745
sg40
g43
ssS'GILLIS JOHN'
p746
(dp747
g3
g48
sg4
g5
sg6
g80
sg7
I00
sg8
g5
sg9
g5
sg11
g5
sg12
g5
sg13
g51
sg14
g5
sg15
g54
sg16
g84
sg17
g5
sg18
g87
sg19
I85641
sg20
g57
sg21
g60
sg22
I75838
sg23
g90
sg24
g25
(g29
S'\xfa\x18\x9c\x8f\xc1\xf9\xc8?'
p748
tp749
Rp750
sg35
g96
sg36
g25
(g29
S"\xf4'\x19\x8bj\x98\x9d?"
p751
tp752
Rp753
sg40
I9803
ssS'FITZGERALD JAY L'
p754
(dp755
g3
I936
sg4
g5
sg6
I23870
sg7
I00
sg8
g5
sg9
S'jay.fitzgerald@enron.com'
p756
sg11
I556416
sg12
g5
sg13
I723
sg14
g5
sg15
I16
sg16
I285414
sg17
g5
sg18
I350000
sg19
I1621236
sg20
I1
sg21
I8
sg22
I956775
sg23
I199157
sg24
g25
(g29
S'\x00\x00\x00\x00\x00\x00\xe0?'
p757
tp758
Rp759
sg35
I1414857
sg36
g25
(g29
S'\x12\x18\x81\x11\x18\x81Q?'
p760
tp761
Rp762
sg40
I664461
ssS'MORAN MICHAEL P'
p763
(dp764
g3
I672
sg4
g5
sg6
g80
sg7
I00
sg8
g5
sg9
S'michael.moran@enron.com'
p765
sg11
g5
sg12
g5
sg13
I127
sg14
g5
sg15
I19
sg16
g84
sg17
g5
sg18
g87
sg19
I221141
sg20
I0
sg21
I0
sg22
I161602
sg23
g90
sg24
g25
(g29
S'\x00\x00\x00\x00\x00\x00\x00\x00'
p766
tp767
Rp768
sg35
g96
sg36
g25
(g29
S'\x00\x00\x00\x00\x00\x00\x00\x00'
p769
tp770
Rp771
sg40
I59539
ssS'REDMOND BRIAN L'
p772
(dp773
g3
I1671
sg4
g5
sg6
I14689
sg7
I00
sg8
g5
sg9
S'brian.redmond@enron.com'
p774
sg11
g5
sg12
g5
sg13
I1063
sg14
g5
sg15
I221
sg16
g84
sg17
g5
sg18
g87
sg19
I7890324
sg20
I204
sg21
I49
sg22
I381285
sg23
I96840
sg24
g25
(g29
S'\x9cMa\x9cMa\xcc?'
p775
tp776
Rp777
sg35
I111529
sg36
g25
(g29
S'\x8ck.\xe7\xcd@\xbf?'
p778
tp779
Rp780
sg40
I7509039
ssS'BAZELIDES PHILIP J'
p781
(dp782
g3
g48
sg4
I684694
sg6
g80
sg7
I00
sg8
g5
sg9
g5
sg11
I93750
sg12
g5
sg13
g51
sg14
g5
sg15
g54
sg16
I874
sg17
g5
sg18
g87
sg19
I1599641
sg20
g57
sg21
g60
sg22
g159
sg23
I80818
sg24
g25
(g29
S'\xfa\x18\x9c\x8f\xc1\xf9\xc8?'
p783
tp784
Rp785
sg35
I860136
sg36
g25
(g29
S"\xf4'\x19\x8bj\x98\x9d?"
p786
tp787
Rp788
sg40
I1599641
ssS'BELDEN TIMOTHY N'
p789
(dp790
g3
I7991
sg4
I2144013
sg6
I17355
sg7
I01
sg8
I-2334434
sg9
S'tim.belden@enron.com'
p791
sg11
g5
sg12
g5
sg13
I5521
sg14
g5
sg15
I484
sg16
I210698
sg17
g5
sg18
I5249999
sg19
I1110705
sg20
I228
sg21
I108
sg22
I157569
sg23
I213999
sg24
g25
(g29
S'3(\x15&\xde\x8f\xcc?'
p792
tp793
Rp794
sg35
I5501630
sg36
g25
(g29
S'\xdfN\xae\xb9\x847\x9d?'
p795
tp796
Rp797
sg40
I953136
ssS'DURAN WILLIAM D'
p798
(dp799
g3
I904
sg4
g5
sg6
I25785
sg7
I00
sg8
g5
sg9
S'w.duran@enron.com'
p800
sg11
I1105218
sg12
g5
sg13
I599
sg14
g5
sg15
I12
sg16
I1568
sg17
g5
sg18
I750000
sg19
I1640910
sg20
I106
sg21
I3
sg22
I189041
sg23
I210692
sg24
g25
(g29
S'\x00\x00\x00\x00\x00\x00\xd0?'
p801
tp802
Rp803
sg35
I2093263
sg36
g25
(g29
S'\x7fH\xe0\xed\x87\x04\xbe?'
p804
tp805
Rp806
sg40
I1451869
ssS'THORN TERENCE H'
p807
(dp808
g3
I266
sg4
I16586
sg6
I46145
sg7
I00
sg8
g5
sg9
S'terence.thorn@enron.com'
p809
sg11
I200000
sg12
g5
sg13
I73
sg14
g5
sg15
I41
sg16
I426629
sg17
g5
sg18
g87
sg19
I4817796
sg20
I0
sg21
I0
sg22
I365320
sg23
I222093
sg24
g25
(g29
S'\x00\x00\x00\x00\x00\x00\x00\x00'
p810
tp811
Rp812
sg35
I911453
sg36
g25
(g29
S'\x00\x00\x00\x00\x00\x00\x00\x00'
p813
tp814
Rp815
sg40
I4452476
ssS'FASTOW ANDREW S'
p816
(dp817
g3
g48
sg4
g5
sg6
I55921
sg7
I01
sg8
I-1386055
sg9
S'andrew.fastow@enron.com'
p818
sg11
I1736055
sg12
g5
sg13
g51
sg14
g5
sg15
g54
sg16
I277464
sg17
g5
sg18
I1300000
sg19
I1794412
sg20
g57
sg21
g60
sg22
I1794412
sg23
I440698
sg24
g25
(g29
S'\xfa\x18\x9c\x8f\xc1\xf9\xc8?'
p819
tp820
Rp821
sg35
I2424083
sg36
g25
(g29
S"\xf4'\x19\x8bj\x98\x9d?"
p822
tp823
Rp824
sg40
g43
ssS'FOY JOE'
p825
(dp826
g3
I57
sg4
I181755
sg6
g80
sg7
I00
sg8
g5
sg9
S'tracy.foy@enron.com'
p827
sg11
g5
sg12
g5
sg13
I2
sg14
g5
sg15
I13
sg16
g84
sg17
g5
sg18
g87
sg19
I343434
sg20
I0
sg21
I0
sg22
g159
sg23
g90
sg24
g25
(g29
S'\x00\x00\x00\x00\x00\x00\x00\x00'
p828
tp829
Rp830
sg35
I181755
sg36
g25
(g29
S'\x00\x00\x00\x00\x00\x00\x00\x00'
p831
tp832
Rp833
sg40
I343434
ssS'CALGER CHRISTOPHER F'
p834
(dp835
g3
I2598
sg4
g5
sg6
I35818
sg7
I01
sg8
I-262500
sg9
S'christopher.calger@enron.com'
p836
sg11
I375304
sg12
g5
sg13
I2188
sg14
g5
sg15
I144
sg16
I486
sg17
g5
sg18
I1250000
sg19
I126027
sg20
I199
sg21
I25
sg22
I126027
sg23
I240189
sg24
g25
(g29
S'\x8e\xe38\x8e\xe38\xc6?'
p837
tp838
Rp839
sg35
I1639297
sg36
g25
(g29
S'\x97\x1b<\xd5\xe2\x9b\xb3?'
p840
tp841
Rp842
sg40
g43
ssS'RICE KENNETH D'
p843
(dp844
g3
I905
sg4
g5
sg6
I46950
sg7
I01
sg8
I-3504386
sg9
S'ken.rice@enron.com'
p845
sg11
I1617011
sg12
g5
sg13
I864
sg14
g5
sg15
I18
sg16
I174839
sg17
g5
sg18
I1750000
sg19
I22542539
sg20
I42
sg21
I4
sg22
I2748364
sg23
I420636
sg24
g25
(g29
S'\x1c\xc7q\x1c\xc7q\xcc?'
p846
tp847
Rp848
sg35
I505050
sg36
g25
(g29
S'K81B\xe6\xc2\xa7?'
p849
tp850
Rp851
sg40
I19794175
ssS'KAMINSKI WINCENTY J'
p852
(dp853
g3
I4607
sg4
g5
sg6
I83585
sg7
I00
sg8
g5
sg9
S'vince.kaminski@enron.com'
p854
sg11
I323466
sg12
g5
sg13
I583
sg14
g5
sg15
I14368
sg16
I4669
sg17
g5
sg18
I400000
sg19
I976037
sg20
I41
sg21
I171
sg22
I126027
sg23
I275101
sg24
g25
(g29
S'\xba:\xd9C\xc9_\x88?'
p855
tp856
Rp857
sg35
I1086821
sg36
g25
(g29
S'\x89\xa6\xb5\xc5\xe69\x82?'
p858
tp859
Rp860
sg40
I850010
ssS'COX DAVID'
p861
(dp862
g3
I102
sg4
g5
sg6
I27861
sg7
I00
sg8
I-41250
sg9
S'chip.cox@enron.com'
p863
sg11
g5
sg12
g5
sg13
I71
sg14
g5
sg15
I33
sg16
I494
sg17
g5
sg18
I800000
sg19
I495633
sg20
I0
sg21
I4
sg22
I378082
sg23
I314288
sg24
g25
(g29
S'\x08\x1f|\xf0\xc1\x07\xbf?'
p864
tp865
Rp866
sg35
I1101393
sg36
g25
(g29
S'\x00\x00\x00\x00\x00\x00\x00\x00'
p867
tp868
Rp869
sg40
I117551
ssS'OVERDYKE JR JERE C'
p870
(dp871
g3
g48
sg4
g5
sg6
I18834
sg7
I00
sg8
g5
sg9
S'jere.overdyke@enron.com'
p872
sg11
I135836
sg12
g5
sg13
g51
sg14
g5
sg15
g54
sg16
I176
sg17
g5
sg18
g87
sg19
I7307594
sg20
g57
sg21
g60
sg22
I2041016
sg23
I94941
sg24
g25
(g29
S'\xfa\x18\x9c\x8f\xc1\xf9\xc8?'
p873
tp874
Rp875
sg35
I249787
sg36
g25
(g29
S"\xf4'\x19\x8bj\x98\x9d?"
p876
tp877
Rp878
sg40
I5266578
ssS'PEREIRA PAULO V. FERRAZ'
p879
(dp880
g3
g48
sg4
g5
sg6
I27942
sg7
I00
sg8
I-101250
sg9
g5
sg11
g5
sg12
g5
sg13
g51
sg14
g5
sg15
g54
sg16
g84
sg17
I101250
sg18
g87
sg19
g171
sg20
g57
sg21
g60
sg22
g159
sg23
g90
sg24
g25
(g29
S'\xfa\x18\x9c\x8f\xc1\xf9\xc8?'
p881
tp882
Rp883
sg35
I27942
sg36
g25
(g29
S"\xf4'\x19\x8bj\x98\x9d?"
p884
tp885
Rp886
sg40
g43
ssS'STABLER FRANK'
p887
(dp888
g3
g48
sg4
g5
sg6
I16514
sg7
I00
sg8
g5
sg9
S'frank.stabler@enron.com'
p889
sg11
g5
sg12
g5
sg13
g51
sg14
g5
sg15
g54
sg16
I356071
sg17
g5
sg18
I500000
sg19
I511734
sg20
g57
sg21
g60
sg22
I511734
sg23
I239502
sg24
g25
(g29
S'\xfa\x18\x9c\x8f\xc1\xf9\xc8?'
p890
tp891
Rp892
sg35
I1112087
sg36
g25
(g29
S"\xf4'\x19\x8bj\x98\x9d?"
p893
tp894
Rp895
sg40
g43
ssS'SKILLING JEFFREY K'
p896
(dp897
g3
I3627
sg4
g5
sg6
I29336
sg7
I01
sg8
g5
sg9
S'jeff.skilling@enron.com'
p898
sg11
I1920000
sg12
g5
sg13
I2042
sg14
g5
sg15
I108
sg16
I22122
sg17
g5
sg18
I5600000
sg19
I26093672
sg20
I88
sg21
I30
sg22
I6843672
sg23
I1111258
sg24
g25
(g29
S'r\x1c\xc7q\x1c\xc7\xd1?'
p899
tp900
Rp901
sg35
I8682716
sg36
g25
(g29
S'\xbet\x9e1C\xd8\x98?'
p902
tp903
Rp904
sg40
I19250000
ssS'BLAKE JR. NORMAN P'
p905
(dp906
g3
g48
sg4
g5
sg6
I1279
sg7
I00
sg8
I-113784
sg9
g5
sg11
g5
sg12
g5
sg13
g51
sg14
g5
sg15
g54
sg16
g84
sg17
I113784
sg18
g87
sg19
g171
sg20
g57
sg21
g60
sg22
g159
sg23
g90
sg24
g25
(g29
S'\xfa\x18\x9c\x8f\xc1\xf9\xc8?'
p907
tp908
Rp909
sg35
I1279
sg36
g25
(g29
S"\xf4'\x19\x8bj\x98\x9d?"
p910
tp911
Rp912
sg40
g43
ssS'SHERRICK JEFFREY B'
p913
(dp914
g3
I613
sg4
g5
sg6
g80
sg7
I00
sg8
g5
sg9
S'jeffrey.sherrick@enron.com'
p915
sg11
g5
sg12
g5
sg13
I583
sg14
g5
sg15
I25
sg16
g84
sg17
g5
sg18
g87
sg19
I1832468
sg20
I39
sg21
I18
sg22
I405999
sg23
g90
sg24
g25
(g29
S'\n\xd7\xa3p=\n\xe7?'
p916
tp917
Rp918
sg35
g96
sg36
g25
(g29
S'\xf8\x83t5\x80I\xb0?'
p919
tp920
Rp921
sg40
I1426469
ssS'PRENTICE JAMES'
p922
(dp923
g3
g48
sg4
I564348
sg6
g80
sg7
I00
sg8
g5
sg9
S'james.prentice@enron.com'
p924
sg11
g5
sg12
g5
sg13
g51
sg14
g5
sg15
g54
sg16
g84
sg17
g5
sg18
g87
sg19
I1095040
sg20
g57
sg21
g60
sg22
I208809
sg23
g90
sg24
g25
(g29
S'\xfa\x18\x9c\x8f\xc1\xf9\xc8?'
p925
tp926
Rp927
sg35
I564348
sg36
g25
(g29
S"\xf4'\x19\x8bj\x98\x9d?"
p928
tp929
Rp930
sg40
I886231
ssS'GRAY RODNEY'
p931
(dp932
g3
g48
sg4
I93585
sg6
g80
sg7
I00
sg8
g5
sg9
g5
sg11
I365625
sg12
g5
sg13
g51
sg14
g5
sg15
g54
sg16
I680833
sg17
g5
sg18
g87
sg19
g171
sg20
g57
sg21
g60
sg22
g159
sg23
I6615
sg24
g25
(g29
S'\xfa\x18\x9c\x8f\xc1\xf9\xc8?'
p933
tp934
Rp935
sg35
I1146658
sg36
g25
(g29
S"\xf4'\x19\x8bj\x98\x9d?"
p936
tp937
Rp938
sg40
g43
ssS'PICKERING MARK R'
p939
(dp940
g3
I898
sg4
g5
sg6
I31653
sg7
I00
sg8
g5
sg9
S'mark.pickering@enron.com'
p941
sg11
g5
sg12
g5
sg13
I728
sg14
I400000
sg15
I67
sg16
g84
sg17
g5
sg18
I300000
sg19
I28798
sg20
I7
sg21
I0
sg22
g159
sg23
I655037
sg24
g25
(g29
S'\x00\x00\x00\x00\x00\x00\x00\x00'
p942
tp943
Rp944
sg35
I1386690
sg36
g25
(g29
S'\xa0\xe8hH\xc1\xed\x7f?'
p945
tp946
Rp947
sg40
I28798
ssS'NOLES JAMES L'
p948
(dp949
g3
g48
sg4
I774401
sg6
g80
sg7
I00
sg8
g5
sg9
g5
sg11
g5
sg12
I-94556
sg13
g51
sg14
g5
sg15
g54
sg16
g84
sg17
g5
sg18
g87
sg19
I368705
sg20
g57
sg21
g60
sg22
I463261
sg23
g90
sg24
g25
(g29
S'\xfa\x18\x9c\x8f\xc1\xf9\xc8?'
p950
tp951
Rp952
sg35
I774401
sg36
g25
(g29
S"\xf4'\x19\x8bj\x98\x9d?"
p953
tp954
Rp955
sg40
g43
ssS'KEAN STEVEN J'
p956
(dp957
g3
I12754
sg4
g5
sg6
I41953
sg7
I00
sg8
g5
sg9
S'steven.kean@enron.com'
p958
sg11
I300000
sg12
g5
sg13
I3639
sg14
g5
sg15
I6759
sg16
I1231
sg17
g5
sg18
I1000000
sg19
I6153642
sg20
I140
sg21
I387
sg22
I4131594
sg23
I404338
sg24
g25
(g29
S'\xc4@\xde\xcc\xc9P\xad?'
p959
tp960
Rp961
sg35
I1747522
sg36
g25
(g29
S'.\xc2c\x13\x15{\x86?'
p962
tp963
Rp964
sg40
I2022048
ssS'FOWLER PEGGY'
p965
(dp966
g3
I517
sg4
g5
sg6
g80
sg7
I00
sg8
g5
sg9
S'kulvinder.fowler@enron.com'
p967
sg11
g5
sg12
g5
sg13
I10
sg14
g5
sg15
I36
sg16
g84
sg17
g5
sg18
g87
sg19
I1884748
sg20
I0
sg21
I0
sg22
I560170
sg23
g90
sg24
g25
(g29
S'\x00\x00\x00\x00\x00\x00\x00\x00'
p968
tp969
Rp970
sg35
g96
sg36
g25
(g29
S'\x00\x00\x00\x00\x00\x00\x00\x00'
p971
tp972
Rp973
sg40
I1324578
ssS'WASAFF GEORGE'
p974
(dp975
g3
I400
sg4
I831299
sg6
g80
sg7
I00
sg8
I-583325
sg9
S'george.wasaff@enron.com'
p976
sg11
I200000
sg12
g5
sg13
I337
sg14
g5
sg15
I30
sg16
I1425
sg17
g5
sg18
I325000
sg19
I2056427
sg20
I22
sg21
I7
sg22
I388167
sg23
I259996
sg24
g25
(g29
S'\xde\xdd\xdd\xdd\xdd\xdd\xcd?'
p977
tp978
Rp979
sg35
I1034395
sg36
g25
(g29
S')\\\x8f\xc2\xf5(\xac?'
p980
tp981
Rp982
sg40
I1668260
ssS'WHITE JR THOMAS E'
p983
(dp984
g3
g48
sg4
g5
sg6
I81353
sg7
I00
sg8
g5
sg9
S'thomas.white@enron.com'
p985
sg11
g5
sg12
g5
sg13
g51
sg14
g5
sg15
g54
sg16
I1085463
sg17
g5
sg18
I450000
sg19
I15144123
sg20
g57
sg21
g60
sg22
I13847074
sg23
I317543
sg24
g25
(g29
S'\xfa\x18\x9c\x8f\xc1\xf9\xc8?'
p986
tp987
Rp988
sg35
I1934359
sg36
g25
(g29
S"\xf4'\x19\x8bj\x98\x9d?"
p989
tp990
Rp991
sg40
I1297049
ssS'CHRISTODOULOU DIOMEDES'
p992
(dp993
g3
g48
sg4
g5
sg6
g80
sg7
I00
sg8
g5
sg9
S'diomedes.christodoulou@enron.com'
p994
sg11
g5
sg12
g5
sg13
g51
sg14
g5
sg15
g54
sg16
g84
sg17
g5
sg18
g87
sg19
I6077885
sg20
g57
sg21
g60
sg22
I950730
sg23
g90
sg24
g25
(g29
S'\xfa\x18\x9c\x8f\xc1\xf9\xc8?'
p995
tp996
Rp997
sg35
g96
sg36
g25
(g29
S"\xf4'\x19\x8bj\x98\x9d?"
p998
tp999
Rp1000
sg40
I5127155
ssS'ALLEN PHILLIP K'
p1001
(dp1002
g3
I2902
sg4
I2869717
sg6
I13868
sg7
I00
sg8
I-3081055
sg9
S'phillip.allen@enron.com'
p1003
sg11
I304805
sg12
I-126027
sg13
I1407
sg14
g5
sg15
I2195
sg16
I152
sg17
g5
sg18
I4175000
sg19
I1729541
sg20
I47
sg21
I65
sg22
I126027
sg23
I201955
sg24
g25
(g29
S'\xa9\x19\xccn\xceR\x9e?'
p1004
tp1005
Rp1006
sg35
I4484442
sg36
g25
(g29
S'\x1f\xf6\xa7\xd8\x9c\x95\x90?'
p1007
tp1008
Rp1009
sg40
I1729541
ssS'SHARP VICTORIA T'
p1010
(dp1011
g3
I3136
sg4
I187469
sg6
I116337
sg7
I00
sg8
g5
sg9
S'vicki.sharp@enron.com'
p1012
sg11
I422158
sg12
g5
sg13
I2477
sg14
g5
sg15
I136
sg16
I2401
sg17
g5
sg18
I600000
sg19
I494136
sg20
I24
sg21
I6
sg22
I213063
sg23
I248146
sg24
g25
(g29
S'\x97\x96\x96\x96\x96\x96\xa6?'
p1013
tp1014
Rp1015
sg35
I1576511
sg36
g25
(g29
S'\xd6\x87\xc6\xfa\xd0X\x7f?'
p1016
tp1017
Rp1018
sg40
I281073
ssS'JAEDICKE ROBERT'
p1019
(dp1020
g3
g48
sg4
g5
sg6
g80
sg7
I00
sg8
I-25000
sg9
g5
sg11
g5
sg12
I-44093
sg13
g51
sg14
g5
sg15
g54
sg16
g84
sg17
I108750
sg18
g87
sg19
I431750
sg20
g57
sg21
g60
sg22
I44093
sg23
g90
sg24
g25
(g29
S'\xfa\x18\x9c\x8f\xc1\xf9\xc8?'
p1021
tp1022
Rp1023
sg35
I83750
sg36
g25
(g29
S"\xf4'\x19\x8bj\x98\x9d?"
p1024
tp1025
Rp1026
sg40
I431750
ssS'WINOKUR JR. HERBERT S'
p1027
(dp1028
g3
g48
sg4
g5
sg6
I1413
sg7
I00
sg8
I-25000
sg9
g5
sg11
g5
sg12
g5
sg13
g51
sg14
g5
sg15
g54
sg16
g84
sg17
I108579
sg18
g87
sg19
g171
sg20
g57
sg21
g60
sg22
g159
sg23
g90
sg24
g25
(g29
S'\xfa\x18\x9c\x8f\xc1\xf9\xc8?'
p1029
tp1030
Rp1031
sg35
I84992
sg36
g25
(g29
S"\xf4'\x19\x8bj\x98\x9d?"
p1032
tp1033
Rp1034
sg40
g43
ssS'BROWN MICHAEL'
p1035
(dp1036
g3
I1486
sg4
g5
sg6
I49288
sg7
I00
sg8
g5
sg9
S'michael.brown@enron.com'
p1037
sg11
g5
sg12
g5
sg13
I761
sg14
g5
sg15
I41
sg16
g84
sg17
g5
sg18
g87
sg19
g171
sg20
I13
sg21
I1
sg22
g159
sg23
g90
sg24
g25
(g29
S'\xfa\x18\x9c\x8f\xc1\xf9\x98?'
p1038
tp1039
Rp1040
sg35
I49288
sg36
g25
(g29
S'K\x13\xf8P\xa3\xea\x81?'
p1041
tp1042
Rp1043
sg40
g43
ssS'BADUM JAMES P'
p1044
(dp1045
g3
g48
sg4
I178980
sg6
I3486
sg7
I00
sg8
g5
sg9
g5
sg11
g5
sg12
g5
sg13
g51
sg14
g5
sg15
g54
sg16
g84
sg17
g5
sg18
g87
sg19
I257817
sg20
g57
sg21
g60
sg22
g159
sg23
g90
sg24
g25
(g29
S'\xfa\x18\x9c\x8f\xc1\xf9\xc8?'
p1046
tp1047
Rp1048
sg35
I182466
sg36
g25
(g29
S"\xf4'\x19\x8bj\x98\x9d?"
p1049
tp1050
Rp1051
sg40
I257817
ssS'HUGHES JAMES A'
p1052
(dp1053
g3
I719
sg4
g5
sg6
g80
sg7
I00
sg8
g5
sg9
S'james.hughes@enron.com'
p1054
sg11
g5
sg12
g5
sg13
I589
sg14
g5
sg15
I34
sg16
g84
sg17
g5
sg18
g87
sg19
I1118394
sg20
I35
sg21
I5
sg22
I363428
sg23
g90
sg24
g25
(g29
S'\xd3\xd2\xd2\xd2\xd2\xd2\xc2?'
p1055
tp1056
Rp1057
sg35
g96
sg36
g25
(g29
S'\r5\xa5\xd0j\xec\xa8?'
p1058
tp1059
Rp1060
sg40
I754966
ssS'REYNOLDS LAWRENCE'
p1061
(dp1062
g3
g48
sg4
I51365
sg6
I8409
sg7
I00
sg8
I-200000
sg9
g5
sg11
I156250
sg12
I-140264
sg13
g51
sg14
g5
sg15
g54
sg16
I202052
sg17
g5
sg18
I100000
sg19
I4221891
sg20
g57
sg21
g60
sg22
I201483
sg23
I76399
sg24
g25
(g29
S'\xfa\x18\x9c\x8f\xc1\xf9\xc8?'
p1063
tp1064
Rp1065
sg35
I394475
sg36
g25
(g29
S"\xf4'\x19\x8bj\x98\x9d?"
p1066
tp1067
Rp1068
sg40
I4160672
ssS'DIMICHELE RICHARD G'
p1069
(dp1070
g3
g48
sg4
g5
sg6
I35812
sg7
I00
sg8
g5
sg9
S'richard.dimichele@enron.com'
p1071
sg11
I694862
sg12
g5
sg13
g51
sg14
g5
sg15
g54
sg16
I374689
sg17
g5
sg18
I1000000
sg19
I8317782
sg20
g57
sg21
g60
sg22
I126027
sg23
I262788
sg24
g25
(g29
S'\xfa\x18\x9c\x8f\xc1\xf9\xc8?'
p1072
tp1073
Rp1074
sg35
I2368151
sg36
g25
(g29
S"\xf4'\x19\x8bj\x98\x9d?"
p1075
tp1076
Rp1077
sg40
I8191755
ssS'BHATNAGAR SANJAY'
p1078
(dp1079
g3
I523
sg4
g5
sg6
g80
sg7
I00
sg8
g5
sg9
S'sanjay.bhatnagar@enron.com'
p1080
sg11
g5
sg12
I15456290
sg13
I463
sg14
g5
sg15
I29
sg16
I137864
sg17
I137864
sg18
g87
sS'total_stock_value'
p1081
g171
sg20
I0
sg21
I1
sg22
I-2604490
sg23
g90
sg24
g25
(g29
S'\x96{\x1aa\xb9\xa7\xa1?'
p1082
tp1083
Rp1084
sg35
I15456290
sg36
g25
(g29
S'\x00\x00\x00\x00\x00\x00\x00\x00'
p1085
tp1086
Rp1087
sg40
I2604490
ssS'CARTER REBECCA C'
p1088
(dp1089
g3
I312
sg4
g5
sg6
g80
sg7
I00
sg8
I-159792
sg9
S'rebecca.carter@enron.com'
p1090
sg11
I75000
sg12
I-307301
sg13
I196
sg14
g5
sg15
I15
sg16
I540
sg17
g5
sg18
I300000
sg19
g171
sg20
I29
sg21
I7
sg22
I307301
sg23
I261809
sg24
g25
(g29
S'\xde\xdd\xdd\xdd\xdd\xdd\xdd?'
p1091
tp1092
Rp1093
sg35
I477557
sg36
g25
(g29
S'\xb8|\xcb\xb7|\xcb\xb7?'
p1094
tp1095
Rp1096
sg40
g43
ssS'BUCHANAN HAROLD G'
p1097
(dp1098
g3
I1088
sg4
g5
sg6
I600
sg7
I00
sg8
g5
sg9
S'john.buchanan@enron.com'
p1099
sg11
I304805
sg12
g5
sg13
I23
sg14
g5
sg15
I125
sg16
I1215
sg17
g5
sg18
I500000
sg19
I1014505
sg20
I0
sg21
I0
sg22
I189041
sg23
I248017
sg24
g25
(g29
S'\x00\x00\x00\x00\x00\x00\x00\x00'
p1100
tp1101
Rp1102
sg35
I1054637
sg36
g25
(g29
S'\x00\x00\x00\x00\x00\x00\x00\x00'
p1103
tp1104
Rp1105
sg40
I825464
ssS'YEAP SOON'
p1106
(dp1107
g3
g48
sg4
g5
sg6
I55097
sg7
I00
sg8
g5
sg9
g5
sg11
g5
sg12
g5
sg13
g51
sg14
g5
sg15
g54
sg16
g84
sg17
g5
sg18
g87
sg19
I192758
sg20
g57
sg21
g60
sg22
g159
sg23
g90
sg24
g25
(g29
S'\xfa\x18\x9c\x8f\xc1\xf9\xc8?'
p1108
tp1109
Rp1110
sg35
I55097
sg36
g25
(g29
S"\xf4'\x19\x8bj\x98\x9d?"
p1111
tp1112
Rp1113
sg40
I192758
ssS'MURRAY JULIA H'
p1114
(dp1115
g3
I2192
sg4
g5
sg6
I57580
sg7
I00
sg8
g5
sg9
S'julia.murray@enron.com'
p1116
sg11
I125000
sg12
g5
sg13
I395
sg14
g5
sg15
I45
sg16
I330
sg17
g5
sg18
I400000
sg19
I597461
sg20
I11
sg21
I2
sg22
I196983
sg23
I229284
sg24
g25
(g29
S'\x17l\xc1\x16l\xc1\xa6?'
p1117
tp1118
Rp1119
sg35
I812194
sg36
g25
(g29
S'\x7f\xdc\xba\xbc\x03\x8et?'
p1120
tp1121
Rp1122
sg40
I400478
ssS'GARLAND C KEVIN'
p1123
(dp1124
g3
I209
sg4
g5
sg6
I48405
sg7
I00
sg8
g5
sg9
S'kevin.garland@enron.com'
p1125
sg11
I375304
sg12
g5
sg13
I178
sg14
g5
sg15
I44
sg16
I60814
sg17
g5
sg18
I850000
sg19
I896153
sg20
I10
sg21
I27
sg22
I259907
sg23
I231946
sg24
g25
(g29
S'\xa3\x8b.\xba\xe8\xa2\xe3?'
p1126
tp1127
Rp1128
sg35
I1566469
sg36
g25
(g29
S'<\x9f\x1e7c\x7f\xa8?'
p1129
tp1130
Rp1131
sg40
I636246
ssS'DODSON KEITH'
p1132
(dp1133
g3
I176
sg4
g5
sg6
I28164
sg7
I00
sg8
g5
sg9
S'keith.dodson@enron.com'
p1134
sg11
g5
sg12
g5
sg13
I114
sg14
g5
sg15
I14
sg16
I774
sg17
g5
sg18
I70000
sg19
g171
sg20
I10
sg21
I3
sg22
g159
sg23
I221003
sg24
g25
(g29
S'\xdb\xb6m\xdb\xb6m\xcb?'
p1135
tp1136
Rp1137
sg35
I319941
sg36
g25
(g29
S'\x17]t\xd1E\x17\xad?'
p1138
tp1139
Rp1140
sg40
g43
ssS'YEAGER F SCOTT'
p1141
(dp1142
g3
g48
sg4
g5
sg6
I53947
sg7
I01
sg8
g5
sg9
S'scott.yeager@enron.com'
p1143
sg11
g5
sg12
g5
sg13
g51
sg14
g5
sg15
g54
sg16
I147950
sg17
g5
sg18
g87
sg19
I11884758
sg20
g57
sg21
g60
sg22
I3576206
sg23
I158403
sg24
g25
(g29
S'\xfa\x18\x9c\x8f\xc1\xf9\xc8?'
p1144
tp1145
Rp1146
sg35
I360300
sg36
g25
(g29
S"\xf4'\x19\x8bj\x98\x9d?"
p1147
tp1148
Rp1149
sg40
I8308552
ssS'HIRKO JOSEPH'
p1150
(dp1151
g3
g48
sg4
I10259
sg6
I77978
sg7
I01
sg8
g5
sg9
S'joe.hirko@enron.com'
p1152
sg11
g5
sg12
g5
sg13
g51
sg14
g5
sg15
g54
sg16
I2856
sg17
g5
sg18
g87
sg19
I30766064
sg20
g57
sg21
g60
sg22
g159
sg23
g90
sg24
g25
(g29
S'\xfa\x18\x9c\x8f\xc1\xf9\xc8?'
p1153
tp1154
Rp1155
sg35
I91093
sg36
g25
(g29
S"\xf4'\x19\x8bj\x98\x9d?"
p1156
tp1157
Rp1158
sg40
I30766064
ssS'DIETRICH JANET R'
p1159
(dp1160
g3
I2572
sg4
g5
sg6
I3475
sg7
I00
sg8
g5
sg9
S'janet.dietrich@enron.com'
p1161
sg11
I556416
sg12
g5
sg13
I1902
sg14
g5
sg15
I63
sg16
I473
sg17
g5
sg18
I600000
sg19
I1865087
sg20
I305
sg21
I14
sg22
I315068
sg23
I250100
sg24
g25
(g29
S'\x1c\xc7q\x1c\xc7q\xcc?'
p1162
tp1163
Rp1164
sg35
I1410464
sg36
g25
(g29
S'\xe8>v\x1d\x92[\xbe?'
p1165
tp1166
Rp1167
sg40
I1550019
ssS'DERRICK JR. JAMES V'
p1168
(dp1169
g3
I2181
sg4
g5
sg6
I51124
sg7
I00
sg8
I-1284000
sg9
S'james.derrick@enron.com'
p1170
sg11
I484000
sg12
I-1787380
sg13
I1401
sg14
g5
sg15
I909
sg16
I7482
sg17
g5
sg18
I800000
sg19
I8831913
sg20
I64
sg21
I20
sg22
I1787380
sg23
I492375
sg24
g25
(g29
S'\x89G\x8a\xa9\xbe\x87\x96?'
p1171
tp1172
Rp1173
sg35
I550981
sg36
g25
(g29
S'M\x16\xda&q\x0c\x9e?'
p1174
tp1175
Rp1176
sg40
I8831913
ssS'FREVERT MARK A'
p1177
(dp1178
g3
I3275
sg4
I6426990
sg6
I86987
sg7
I00
sg8
I-3367011
sg9
S'mark.frevert@enron.com'
p1179
sg11
I1617011
sg12
g5
sg13
I2979
sg14
I2000000
sg15
I21
sg16
I7427621
sg17
g5
sg18
I2000000
sg19
I14622185
sg20
I242
sg21
I6
sg22
I4188667
sg23
I1060932
sg24
g25
(g29
S'\x92$I\x92$I\xd2?'
p1180
tp1181
Rp1182
sg35
I17252530
sg36
g25
(g29
S'\x8f\xf7\xc3\xff\xa8\xea\xb2?'
p1183
tp1184
Rp1185
sg40
I10433518
ssS'PAI LOU L'
p1186
(dp1187
g3
g48
sg4
g5
sg6
I32047
sg7
I00
sg8
g5
sg9
S'lou.pai@enron.com'
p1188
sg11
g5
sg12
g5
sg13
g51
sg14
g5
sg15
g54
sg16
I1829457
sg17
g5
sg18
I1000000
sg19
I23817930
sg20
g57
sg21
g60
sg22
I8453763
sg23
I261879
sg24
g25
(g29
S'\xfa\x18\x9c\x8f\xc1\xf9\xc8?'
p1189
tp1190
Rp1191
sg35
I3123383
sg36
g25
(g29
S"\xf4'\x19\x8bj\x98\x9d?"
p1192
tp1193
Rp1194
sg40
I15364167
ssS'BAY FRANKLIN R'
p1195
(dp1196
g3
g48
sg4
I260455
sg6
I129142
sg7
I00
sg8
I-201641
sg9
S'frank.bay@enron.com'
p1197
sg11
g5
sg12
I-82782
sg13
g51
sg14
g5
sg15
g54
sg16
I69
sg17
g5
sg18
I400000
sg19
I63014
sg20
g57
sg21
g60
sg22
I145796
sg23
I239671
sg24
g25
(g29
S'\xfa\x18\x9c\x8f\xc1\xf9\xc8?'
p1198
tp1199
Rp1200
sg35
I827696
sg36
g25
(g29
S"\xf4'\x19\x8bj\x98\x9d?"
p1201
tp1202
Rp1203
sg40
g43
ssS'HAYSLETT RODERICK J'
p1204
(dp1205
g3
I2649
sg4
g5
sg6
g80
sg7
I00
sg8
g5
sg9
S'rod.hayslett@enron.com'
p1206
sg11
g5
sg12
g5
sg13
I571
sg14
g5
sg15
I1061
sg16
g84
sg17
g5
sg18
g87
sg19
I346663
sg20
I35
sg21
I38
sg22
I346663
sg23
g90
sg24
g25
(g29
S'\xc7(\xcb\xfe`V\xa2?'
p1207
tp1208
Rp1209
sg35
g96
sg36
g25
(g29
S'\xe3\x98"*,\x0f\x8b?'
p1210
tp1211
Rp1212
sg40
g43
ssS'FUGH JOHN L'
p1213
(dp1214
g3
g48
sg4
I50591
sg6
g80
sg7
I00
sg8
g5
sg9
g5
sg11
g5
sg12
g5
sg13
g51
sg14
g5
sg15
g54
sg16
g84
sg17
g5
sg18
g87
sg19
I176378
sg20
g57
sg21
g60
sg22
g159
sg23
g90
sg24
g25
(g29
S'\xfa\x18\x9c\x8f\xc1\xf9\xc8?'
p1215
tp1216
Rp1217
sg35
I50591
sg36
g25
(g29
S"\xf4'\x19\x8bj\x98\x9d?"
p1218
tp1219
Rp1220
sg40
I176378
ssS'FALLON JAMES B'
p1221
(dp1222
g3
I1755
sg4
g5
sg6
I95924
sg7
I00
sg8
g5
sg9
S'jim.fallon@enron.com'
p1223
sg11
I374347
sg12
g5
sg13
I1604
sg14
g5
sg15
I75
sg16
I401481
sg17
g5
sg18
I2500000
sg19
I2332399
sg20
I42
sg21
I37
sg22
I1392142
sg23
I304588
sg24
g25
(g29
S'\x93_,\xf9\xc5\x92\xdf?'
p1224
tp1225
Rp1226
sg35
I3676340
sg36
g25
(g29
S'\x19\x88\x81\x18\x88\x81\x98?'
p1227
tp1228
Rp1229
sg40
I940257
ssS'KOENIG MARK E'
p1230
(dp1231
g3
I2374
sg4
g5
sg6
I127017
sg7
I01
sg8
g5
sg9
S'mark.koenig@enron.com'
p1232
sg11
I300000
sg12
g5
sg13
I2271
sg14
g5
sg15
I61
sg16
I150458
sg17
g5
sg18
I700000
sg19
I1920055
sg20
I53
sg21
I15
sg22
I1248318
sg23
I309946
sg24
g25
(g29
S'.\x19\x82u\xb4y\xcf?'
p1233
tp1234
Rp1235
sg35
I1587421
sg36
g25
(g29
S'N}\t\x1cj\xdc\x96?'
p1236
tp1237
Rp1238
sg40
I671737
ssS'SAVAGE FRANK'
p1239
(dp1240
g3
g48
sg4
g5
sg6
g80
sg7
I00
sg8
I-121284
sg9
g5
sg11
g5
sg12
g5
sg13
g51
sg14
g5
sg15
g54
sg16
g84
sg17
I125034
sg18
g87
sg19
g171
sg20
g57
sg21
g60
sg22
g159
sg23
g90
sg24
g25
(g29
S'\xfa\x18\x9c\x8f\xc1\xf9\xc8?'
p1241
tp1242
Rp1243
sg35
I3750
sg36
g25
(g29
S"\xf4'\x19\x8bj\x98\x9d?"
p1244
tp1245
Rp1246
sg40
g43
ssS'IZZO LAWRENCE L'
p1247
(dp1248
g3
I496
sg4
g5
sg6
I28093
sg7
I00
sg8
g5
sg9
S'larry.izzo@enron.com'
p1249
sg11
I312500
sg12
g5
sg13
I437
sg14
g5
sg15
I19
sg16
I1553729
sg17
g5
sg18
g87
sg19
I5819980
sg20
I28
sg21
I5
sg22
I3654808
sg23
I85274
sg24
g25
(g29
S'y\r\xe55\x94\xd7\xd0?'
p1250
tp1251
Rp1252
sg35
I1979596
sg36
g25
(g29
S'\xe7\x9cs\xce9\xe7\xac?'
p1253
tp1254
Rp1255
sg40
I2165172
ssS'TILNEY ELIZABETH A'
p1256
(dp1257
g3
I460
sg4
g5
sg6
g80
sg7
I00
sg8
I-575000
sg9
S'elizabeth.tilney@enron.com'
p1258
sg11
I275000
sg12
g5
sg13
I379
sg14
g5
sg15
I19
sg16
I152055
sg17
g5
sg18
I300000
sg19
I1168042
sg20
I10
sg21
I11
sg22
I576792
sg23
I247338
sg24
g25
(g29
S'l(\xaf\xa1\xbc\x86\xe2?'
p1259
tp1260
Rp1261
sg35
I399393
sg36
g25
(g29
S'd!\x0bY\xc8B\x96?'
p1262
tp1263
Rp1264
sg40
I591250
ssS'MARTIN AMANDA K'
p1265
(dp1266
g3
I1522
sg4
I85430
sg6
I8211
sg7
I00
sg8
g5
sg9
S'a..martin@enron.com'
p1267
sg11
I5145434
sg12
g5
sg13
I477
sg14
g5
sg15
I230
sg16
I2818454
sg17
g5
sg18
g87
sg19
I2070306
sg20
I8
sg21
I0
sg22
g159
sg23
I349487
sg24
g25
(g29
S'\x00\x00\x00\x00\x00\x00\x00\x00'
p1268
tp1269
Rp1270
sg35
I8407016
sg36
g25
(g29
S'\xce|5\xa9\x91\x87u?'
p1271
tp1272
Rp1273
sg40
I2070306
ssS'BUY RICHARD B'
p1274
(dp1275
g3
I3523
sg4
I649584
sg6
g80
sg7
I00
sg8
I-694862
sg9
S'rick.buy@enron.com'
p1276
sg11
I769862
sg12
g5
sg13
I2333
sg14
g5
sg15
I1053
sg16
I400572
sg17
g5
sg18
I900000
sg19
I3444470
sg20
I156
sg21
I71
sg22
I901657
sg23
I330546
sg24
g25
(g29
S'\x83i&J\xdbB\xb1?'
p1277
tp1278
Rp1279
sg35
I2355702
sg36
g25
(g29
S'\xd6\x13e\x1b\xed\xab\xa6?'
p1280
tp1281
Rp1282
sg40
I2542813
ssS'GRAMM WENDY L'
p1283
(dp1284
g3
g48
sg4
g5
sg6
g80
sg7
I00
sg8
g5
sg9
g5
sg11
g5
sg12
g5
sg13
g51
sg14
g5
sg15
g54
sg16
g84
sg17
I119292
sg18
g87
sg19
g171
sg20
g57
sg21
g60
sg22
g159
sg23
g90
sg24
g25
(g29
S'\xfa\x18\x9c\x8f\xc1\xf9\xc8?'
p1285
tp1286
Rp1287
sg35
I119292
sg36
g25
(g29
S"\xf4'\x19\x8bj\x98\x9d?"
p1288
tp1289
Rp1290
sg40
g43
ssS'CAUSEY RICHARD A'
p1291
(dp1292
g3
I1892
sg4
g5
sg6
I30674
sg7
I01
sg8
I-235000
sg9
S'richard.causey@enron.com'
p1293
sg11
I350000
sg12
g5
sg13
I1585
sg14
g5
sg15
I49
sg16
I307895
sg17
g5
sg18
I1000000
sg19
I2502063
sg20
I58
sg21
I12
sg22
I2502063
sg23
I415189
sg24
g25
(g29
S'\xd6\x87\xc6\xfa\xd0X\xcf?'
p1294
tp1295
Rp1296
sg35
I1868758
sg36
g25
(g29
S'|\x13<y d\x9f?'
p1297
tp1298
Rp1299
sg40
g43
ssS'TAYLOR MITCHELL S'
p1300
(dp1301
g3
I533
sg4
I227449
sg6
g80
sg7
I00
sg8
g5
sg9
S'mitchell.taylor@enron.com'
p1302
sg11
g5
sg12
g5
sg13
I300
sg14
g5
sg15
I29
sg16
g84
sg17
g5
sg18
I600000
sg19
I3745048
sg20
I0
sg21
I0
sg22
I563798
sg23
I265214
sg24
g25
(g29
S'\x00\x00\x00\x00\x00\x00\x00\x00'
p1303
tp1304
Rp1305
sg35
I1092663
sg36
g25
(g29
S'\x00\x00\x00\x00\x00\x00\x00\x00'
p1306
tp1307
Rp1308
sg40
I3181250
ssS'DONAHUE JR JEFFREY M'
p1309
(dp1310
g3
I865
sg4
g5
sg6
I96268
sg7
I00
sg8
I-300000
sg9
S'jeff.donahue@enron.com'
p1311
sg11
g5
sg12
g5
sg13
I772
sg14
g5
sg15
I22
sg16
I891
sg17
g5
sg18
I800000
sg19
I1080988
sg20
I188
sg21
I11
sg22
I315068
sg23
I278601
sg24
g25
(g29
S'\x00\x00\x00\x00\x00\x00\xe0?'
p1312
tp1313
Rp1314
sg35
I875760
sg36
g25
(g29
S'\xcc\xafn\xca\xd4\xd1\xcb?'
p1315
tp1316
Rp1317
sg40
I765920
ssS'GLISAN JR BEN F'
p1318
(dp1319
g3
I873
sg4
g5
sg6
I125978
sg7
I01
sg8
g5
sg9
S'ben.glisan@enron.com'
p1320
sg11
I71023
sg12
g5
sg13
I874
sg14
g5
sg15
I16
sg16
I200308
sg17
g5
sg18
I600000
sg19
I778546
sg20
I52
sg21
I6
sg22
I393818
sg23
I274975
sg24
g25
(g29
S'\x00\x00\x00\x00\x00\x00\xd8?'
p1321
tp1322
Rp1323
sg35
I1272284
sg36
g25
(g29
S'\x1e\xd8GSD\x7f\xae?'
p1324
tp1325
Rp1326
sg40
I384728
ss.